Component: ARM Compiler 5.06 update 5 (build 528) Tool: armlink [4d35e2]

==============================================================================

Section Cross References

    telnet_server.o(.text) refers to adc_mcbstm32c.o(.text) for ADC_StartConversion
    telnet_server.o(.text) refers to rt_cmsis.o(i.osSignalWait) for osSignalWait
    telnet_server.o(.text) refers to sntp.o(.text) for send_udp_data
    telnet_server.o(.text) refers to rtc.o(.text) for epoch2time
    telnet_server.o(.text) refers to printf8.o(i.__0sprintf$8) for __2sprintf
    telnet_server.o(.text) refers to rt_cmsis.o(i.osMutexWait) for osMutexWait
    telnet_server.o(.text) refers to glcd_mcbstm32c.o(.text) for GLCD_DrawString
    telnet_server.o(.text) refers to rt_cmsis.o(i.osMutexRelease) for osMutexRelease
    telnet_server.o(.text) refers to net_sys.o(i.netIF_GetOption) for netIF_GetOption
    telnet_server.o(.text) refers to net_addr.o(i.netIP_ntoa) for netIP_ntoa
    telnet_server.o(.text) refers to led_mcbstm32c.o(.text) for LED_SetOut
    telnet_server.o(.text) refers to rt_cmsis.o(i.osDelay) for osDelay
    telnet_server.o(.text) refers to net_sys.o(i.netInitialize) for netInitialize
    telnet_server.o(.text) refers to timer.o(.text) for timer_init
    telnet_server.o(.text) refers to net_udp.o(i.netUDP_GetSocket) for netUDP_GetSocket
    telnet_server.o(.text) refers to net_udp.o(i.netUDP_Open) for netUDP_Open
    telnet_server.o(.text) refers to rt_cmsis.o(i.osThreadCreate) for osThreadCreate
    telnet_server.o(.text) refers to rt_cmsis.o(i.osMutexCreate) for osMutexCreate
    telnet_server.o(.text) refers to sntp.o(.bss) for InternetTime
    telnet_server.o(.text) refers to telnet_server_uif.o(.bss) for t
    telnet_server.o(.text) refers to telnet_server.o(.data) for .data
    telnet_server.o(.text) refers to telnet_server.o(.bss) for .bss
    telnet_server.o(.text) refers to sntp.o(.data) for udp_sock
    telnet_server.o(.text) refers to glcd_fonts.o(.constdata) for GLCD_Font_16x24
    telnet_server.o(.text) refers to telnet_server.o(.constdata) for .constdata
    telnet_server.o(.constdata) refers to telnet_server.o(.bss) for os_mutex_cb_uart_mutex
    telnet_server.o(.constdata) refers to telnet_server.o(.text) for BlinkLed
    telnet_server_uif.o(.text) refers to _scanf_int.o(.text) for _scanf_int
    telnet_server_uif.o(.text) refers to printf8.o(i.__0sprintf$8) for __2sprintf
    telnet_server_uif.o(.text) refers to strlen.o(.text) for strlen
    telnet_server_uif.o(.text) refers to net_telnet_server.o(i.netTELNETs_CheckCommand) for netTELNETs_CheckCommand
    telnet_server_uif.o(.text) refers to __0sscanf.o(.text) for __0sscanf
    telnet_server_uif.o(.text) refers to led_mcbstm32c.o(.text) for LED_SetOut
    telnet_server_uif.o(.text) refers to telnet_server.o(.text) for AD_in
    telnet_server_uif.o(.text) refers to net_tcp.o(i.netTCP_GetState) for netTCP_GetState
    telnet_server_uif.o(.text) refers to net_tcp.o(i.net_tcp_ntoa) for net_tcp_ntoa
    telnet_server_uif.o(.text) refers to net_tcp.o(i.netTCP_GetPeer) for netTCP_GetPeer
    telnet_server_uif.o(.text) refers to net_addr.o(i.netIP_ntoa) for netIP_ntoa
    telnet_server_uif.o(.text) refers to net_tcp.o(i.netTCP_GetTimer) for netTCP_GetTimer
    telnet_server_uif.o(.text) refers to net_tcp.o(i.netTCP_GetLocalPort) for netTCP_GetLocalPort
    telnet_server_uif.o(.text) refers to net_telnet_server.o(i.netTELNETs_RepeatCommand) for netTELNETs_RepeatCommand
    telnet_server_uif.o(.text) refers to net_telnet_server.o(i.netTELNETs_LoginActive) for netTELNETs_LoginActive
    telnet_server_uif.o(.text) refers to net_telnet_server.o(i.netTELNETs_SetPassword) for netTELNETs_SetPassword
    telnet_server_uif.o(.text) refers to net_telnet_server.o(i.netTELNETs_GetPassword) for netTELNETs_GetPassword
    telnet_server_uif.o(.text) refers to net_telnet_server.o(i.netTELNETs_GetClient) for netTELNETs_GetClient
    telnet_server_uif.o(.text) refers to memmovea.o(.text) for __aeabi_memcpy
    telnet_server_uif.o(.text) refers to rt_cmsis.o(i.osSignalSet) for osSignalSet
    telnet_server_uif.o(.text) refers to telnet_server.o(.data) for LEDrun
    telnet_server_uif.o(.text) refers to telnet_server_uif.o(.constdata) for .constdata
    telnet_server_uif.o(.text) refers to telnet_server_uif.o(.data) for .data
    telnet_server_uif.o(.text) refers to telnet_server_uif.o(.bss) for .bss
    telnet_server_uif.o(.text) refers to rtc.o(.text) for time2epoch
    telnet_server_uif.o(.text) refers to backlight.o(.text) for tim3init
    telnet_server_uif.o(.text) refers to sntp.o(.text) for send_udp_data
    rtc.o(.text) refers to printf8.o(i.__0printf$8) for __2printf
    rtc.o(.text) refers to rtc.o(.constdata) for .constdata
    rtc.o(.text) refers to rtc.o(.conststring) for .conststring
    rtc.o(.constdata) refers to rtc.o(.conststring) for .conststring
    backlight.o(.text) refers to memmovea.o(.text) for __aeabi_memcpy4
    backlight.o(.text) refers to backlight.o(.constdata) for .constdata
    timer.o(.text) refers to rt_cmsis.o(i.osSignalSet) for osSignalSet
    timer.o(.text) refers to telnet_server_uif.o(.bss) for t
    timer.o(.text) refers to sntp.o(.bss) for InternetTime
    timer.o(.text) refers to telnet_server.o(.data) for TID_UpdateTimeDisplay
    sntp.o(.text) refers to memmovea.o(.text) for __aeabi_memcpy4
    sntp.o(.text) refers to net_udp.o(i.netUDP_GetBuffer) for netUDP_GetBuffer
    sntp.o(.text) refers to net_udp.o(i.netUDP_Send) for netUDP_Send
    sntp.o(.text) refers to sntp.o(.data) for .data
    sntp.o(.text) refers to sntp.o(.bss) for .bss
    sntp.o(.text) refers to sntp.o(.constdata) for .constdata
    adc_mcbstm32c.o(.text) refers to adc_mcbstm32c.o(.data) for .data
    glcd_fonts.o(.constdata) refers to glcd_fonts.o(.constdata) for Font_6x8_h
    glcd_fonts.o(.constdata) refers to glcd_fonts.o(.constdata) for Font_16x24_h
    glcd_mcbstm32c.o(.text) refers to gpio_stm32f10x.o(.text) for GPIO_PinConfigure
    glcd_mcbstm32c.o(.text) refers to spi_stm32f10x.o(.constdata) for Driver_SPI3
    glcd_mcbstm32c.o(.text) refers to glcd_mcbstm32c.o(.data) for .data
    glcd_mcbstm32c.o(.text) refers to system_stm32f10x.o(.data) for SystemCoreClock
    led_mcbstm32c.o(.text) refers to gpio_stm32f10x.o(.text) for GPIO_PortClock
    led_mcbstm32c.o(.text) refers to led_mcbstm32c.o(.constdata) for .constdata
    rtx_conf_cm.o(.ARM.Collect$$$$000000FF) refers to rt_cmsis.o(i.osKernelInitialize) for osKernelInitialize
    rtx_conf_cm.o(.ARM.Collect$$$$000000FF) refers to rt_cmsis.o(i.osThreadCreate) for osThreadCreate
    rtx_conf_cm.o(.ARM.Collect$$$$000000FF) refers to rt_cmsis.o(i.osKernelStart) for osKernelStart
    rtx_conf_cm.o(.ARM.Collect$$$$000000FF) refers to rtx_conf_cm.o(.constdata) for .constdata
    rtx_conf_cm.o(.constdata) refers to telnet_server.o(.text) for main
    rtx_conf_cm.o(.constdata) refers to rt_cmsis.o(i.osTimerThread) for osTimerThread
    rtx_conf_cm.o(.constdata) refers to rtx_conf_cm.o(.bss) for os_messageQ_q_osTimerMessageQ
    phy_dp83848c.o(.text) refers to phy_dp83848c.o(.constdata) for .constdata
    phy_dp83848c.o(.text) refers to phy_dp83848c.o(.bss) for .bss
    phy_dp83848c.o(.constdata) refers to phy_dp83848c.o(.text) for GetVersion
    emac_stm32f10x.o(.text) refers to system_stm32f10x.o(.text) for SystemCoreClockUpdate
    emac_stm32f10x.o(.text) refers to gpio_stm32f10x.o(.text) for GPIO_PortClock
    emac_stm32f10x.o(.text) refers to emac_stm32f10x.o(.constdata) for .constdata
    emac_stm32f10x.o(.text) refers to system_stm32f10x.o(.data) for SystemCoreClock
    emac_stm32f10x.o(.text) refers to emac_stm32f10x.o(.data) for .data
    emac_stm32f10x.o(.text) refers to emac_stm32f10x.o(.bss) for .bss
    emac_stm32f10x.o(.constdata) refers to emac_stm32f10x.o(.text) for GetVersion
    spi_stm32f10x.o(.text) refers to memseta.o(.text) for __aeabi_memclr4
    spi_stm32f10x.o(.text) refers to gpio_stm32f10x.o(.text) for GPIO_AFConfigure
    spi_stm32f10x.o(.text) refers to spi_stm32f10x.o(.constdata) for .constdata
    spi_stm32f10x.o(.text) refers to spi_stm32f10x.o(.bss) for .bss
    spi_stm32f10x.o(.constdata) refers to spi_stm32f10x.o(.constdata) for SPI3_mosi
    spi_stm32f10x.o(.constdata) refers to spi_stm32f10x.o(.constdata) for SPI3_miso
    spi_stm32f10x.o(.constdata) refers to spi_stm32f10x.o(.constdata) for SPI3_nss
    spi_stm32f10x.o(.constdata) refers to spi_stm32f10x.o(.constdata) for SPI3_sck
    spi_stm32f10x.o(.constdata) refers to spi_stm32f10x.o(.bss) for SPI3_Info
    spi_stm32f10x.o(.constdata) refers to spi_stm32f10x.o(.bss) for SPI3_TransferInfo
    spi_stm32f10x.o(.constdata) refers to spi_stm32f10x.o(.text) for SPIX_GetVersion
    dma_stm32f10x.o(.text) refers to dma_stm32f10x.o(.data) for .data
    startup_stm32f10x_cl.o(RESET) refers to startup_stm32f10x_cl.o(STACK) for __initial_sp
    startup_stm32f10x_cl.o(RESET) refers to startup_stm32f10x_cl.o(.text) for Reset_Handler
    startup_stm32f10x_cl.o(RESET) refers to hal_cm3.o(.emb_text) for SVC_Handler
    startup_stm32f10x_cl.o(RESET) refers to dma_stm32f10x.o(.text) for DMA1_Channel1_IRQHandler
    startup_stm32f10x_cl.o(RESET) refers to adc_mcbstm32c.o(.text) for ADC1_2_IRQHandler
    startup_stm32f10x_cl.o(RESET) refers to timer.o(.text) for TIM2_IRQHandler
    startup_stm32f10x_cl.o(RESET) refers to spi_stm32f10x.o(.text) for SPI3_IRQHandler
    startup_stm32f10x_cl.o(RESET) refers to emac_stm32f10x.o(.text) for ETH_IRQHandler
    startup_stm32f10x_cl.o(.text) refers to system_stm32f10x.o(.text) for SystemInit
    startup_stm32f10x_cl.o(.text) refers to entry.o(.ARM.Collect$$$$00000000) for __main
    system_stm32f10x.o(.text) refers to system_stm32f10x.o(.data) for .data
    net_config.o(.text) refers to rt_cmsis.o(i.osThreadCreate) for osThreadCreate
    net_config.o(.text) refers to rt_cmsis.o(i.osThreadGetId) for osThreadGetId
    net_config.o(.text) refers to rt_cmsis.o(i.osThreadYield) for osThreadYield
    net_config.o(.text) refers to rt_cmsis.o(i.osTimerCreate) for osTimerCreate
    net_config.o(.text) refers to rt_cmsis.o(i.osTimerStart) for osTimerStart
    net_config.o(.text) refers to rt_cmsis.o(i.osMutexCreate) for osMutexCreate
    net_config.o(.text) refers to rt_cmsis.o(i.osMutexWait) for osMutexWait
    net_config.o(.text) refers to rt_cmsis.o(i.osMutexRelease) for osMutexRelease
    net_config.o(.text) refers to rt_cmsis.o(i.osSignalWait) for osSignalWait
    net_config.o(.text) refers to rt_cmsis.o(i.osSignalSet) for osSignalSet
    net_config.o(.text) refers to rt_cmsis.o(i.osSignalClear) for osSignalClear
    net_config.o(.text) refers to rt_cmsis.o(i.osDelay) for osDelay
    net_config.o(.text) refers to rt_cmsis.o(i.osSemaphoreCreate) for osSemaphoreCreate
    net_config.o(.text) refers to rt_cmsis.o(i.osSemaphoreWait) for osSemaphoreWait
    net_config.o(.text) refers to rt_cmsis.o(i.osSemaphoreRelease) for osSemaphoreRelease
    net_config.o(.text) refers to net_config.o(.constdata) for .constdata
    net_config.o(.constdata) refers to net_config.o(.bss) for os_mutex_cb_net_lock
    net_config.o(.constdata) refers to net_config.o(.bss) for os_mutex_cb_mem_lock
    net_config.o(.constdata) refers to net_config.o(.data) for os_semaphore_cb_eth0_lock
    net_config.o(.constdata) refers to net_sys.o(i.net_sys_tick) for net_sys_tick
    net_config.o(.constdata) refers to net_config.o(.bss) for os_timer_cb_net_tick
    net_config.o(.constdata) refers to net_sys.o(i.netCore_Thread) for netCore_Thread
    net_config.o(.constdata) refers to net_eth.o(i.netETH_Thread) for netETH_Thread
    net_config.o(.constdata) refers to net_config.o(.bss) for mem_pool
    net_config.o(.constdata) refers to net_config.o(.conststring) for .conststring
    net_config.o(.constdata) refers to net_config.o(.conststring) for .conststring
    net_config.o(.constdata) refers to net_config.o(.bss) for eth0_arp_table
    net_config.o(.constdata) refers to net_config.o(.conststring) for .conststring
    net_config.o(.constdata) refers to net_config.o(.bss) for eth0_ndp_table
    net_config.o(.constdata) refers to emac_stm32f10x.o(.constdata) for Driver_ETH_MAC0
    net_config.o(.constdata) refers to phy_dp83848c.o(.constdata) for Driver_ETH_PHY0
    net_config.o(.constdata) refers to net_config.o(.data) for eth0_mac_addr
    net_config.o(.constdata) refers to net_config.o(.conststring) for .conststring
    net_config.o(.constdata) refers to net_config.o(.constdata) for eth0_ip4_config
    net_config.o(.constdata) refers to net_config.o(.constdata) for eth0_ip6_config
    net_config.o(.constdata) refers to net_config.o(.bss) for eth0_localm
    net_config.o(.constdata) refers to net_config.o(.bss) for eth0_localm6
    net_config.o(.constdata) refers to net_config.o(.bss) for udp_scb
    net_config.o(.constdata) refers to net_config.o(.bss) for tcp_scb
    net_config.o(.constdata) refers to net_config.o(.bss) for telnet_scb
    net_config.o(.constdata) refers to net_config.o(.conststring) for .conststring
    net_config.o(.constdata) refers to net_config.o(.bss) for telnet_user
    net_config.o(.constdata) refers to net_config.o(.bss) for telnet_passw
    net_config.o(.constdata) refers to net_eth.o(i.net_eth_iface_init) for net_eth_iface_init
    net_config.o(.constdata) refers to net_eth.o(i.net_eth_iface_run) for net_eth_iface_run
    net_config.o(.constdata) refers to net_loop.o(i.net_loop_iface_init) for net_loop_iface_init
    net_config.o(.constdata) refers to net_loop.o(i.net_loop_iface_run) for net_loop_iface_run
    net_config.o(.constdata) refers to net_ping.o(i.net_ping_client_init) for net_ping_client_init
    net_config.o(.constdata) refers to net_ping.o(i.net_ping_client_run) for net_ping_client_run
    net_config.o(.constdata) refers to net_udp.o(i.net_udp_socket_init) for net_udp_socket_init
    net_config.o(.constdata) refers to net_tcp.o(i.net_tcp_socket_init) for net_tcp_socket_init
    net_config.o(.constdata) refers to net_tcp.o(i.net_tcp_socket_run) for net_tcp_socket_run
    net_config.o(.constdata) refers to net_telnet_server.o(i.net_telnet_server_init) for net_telnet_server_init
    net_config.o(.constdata) refers to net_telnet_server.o(i.net_telnet_server_run) for net_telnet_server_run
    net_config.o(.constdata) refers to net_nbns_client.o(i.net_nbns_client_init) for net_nbns_client_init
    net_config.o(.constdata) refers to net_arp.o(i.net_arp_notify) for net_arp_notify
    net_config.o(.constdata) refers to net_dhcp6_client.o(i.net_dhcp6_client_init) for net_dhcp6_client_init
    net_config.o(.constdata) refers to net_dhcp6_client.o(i.net_dhcp6_client_run) for net_dhcp6_client_run
    rt_cmsis.o(i.isrMessageGet) refers to rt_mailbox.o(i.isr_mbx_receive) for isr_mbx_receive
    rt_cmsis.o(i.isrMessagePut) refers to rt_mailbox.o(i.rt_mbx_check) for rt_mbx_check
    rt_cmsis.o(i.isrMessagePut) refers to rt_mailbox.o(i.isr_mbx_send) for isr_mbx_send
    rt_cmsis.o(i.isrSemaphoreRelease) refers to rt_cmsis.o(i.rt_id2obj) for rt_id2obj
    rt_cmsis.o(i.isrSemaphoreRelease) refers to rt_semaphore.o(i.isr_sem_send) for isr_sem_send
    rt_cmsis.o(i.isrSignalSet) refers to rt_cmsis.o(i.rt_tid2ptcb) for rt_tid2ptcb
    rt_cmsis.o(i.isrSignalSet) refers to rt_event.o(i.isr_evt_set) for isr_evt_set
    rt_cmsis.o(i.osDelay) refers to rt_cmsis.o(i.svcDelay) for svcDelay
    rt_cmsis.o(i.osKernelInitialize) refers to rt_cmsis.o(i.svcKernelInitialize) for svcKernelInitialize
    rt_cmsis.o(i.osKernelRunning) refers to rt_cmsis.o(i.svcKernelRunning) for svcKernelRunning
    rt_cmsis.o(i.osKernelRunning) refers to rt_cmsis.o(.data) for .data
    rt_cmsis.o(i.osKernelStart) refers to rtx_conf_cm.o(.constdata) for os_flags
    rt_cmsis.o(i.osKernelStart) refers to rt_cmsis.o(i.svcKernelStart) for svcKernelStart
    rt_cmsis.o(i.osKernelSysTick) refers to rt_cmsis.o(i.svcKernelSysTick) for svcKernelSysTick
    rt_cmsis.o(i.osMailAlloc) refers to rt_cmsis.o(i.sysMailAlloc) for sysMailAlloc
    rt_cmsis.o(i.osMailCAlloc) refers to rt_cmsis.o(i.sysMailAlloc) for sysMailAlloc
    rt_cmsis.o(i.osMailCAlloc) refers to rt_cmsis.o(i.rt_clr_box) for rt_clr_box
    rt_cmsis.o(i.osMailCreate) refers to rt_cmsis.o(i.svcMailCreate) for svcMailCreate
    rt_cmsis.o(i.osMailCreate) refers to rt_cmsis.o(.data) for .data
    rt_cmsis.o(i.osMailFree) refers to rt_cmsis.o(i.sysMailFree) for sysMailFree
    rt_cmsis.o(i.osMailGet) refers to rt_cmsis.o(i.osMessageGet) for osMessageGet
    rt_cmsis.o(i.osMailPut) refers to rt_cmsis.o(i.osMessagePut) for osMessagePut
    rt_cmsis.o(i.osMessageCreate) refers to rt_cmsis.o(i.svcMessageCreate) for svcMessageCreate
    rt_cmsis.o(i.osMessageCreate) refers to rt_cmsis.o(.data) for .data
    rt_cmsis.o(i.osMessageGet) refers to rt_cmsis.o(i.isrMessageGet) for isrMessageGet
    rt_cmsis.o(i.osMessageGet) refers to rt_cmsis.o(i.svcMessageGet) for svcMessageGet
    rt_cmsis.o(i.osMessagePut) refers to rt_cmsis.o(i.isrMessagePut) for isrMessagePut
    rt_cmsis.o(i.osMessagePut) refers to rt_cmsis.o(i.svcMessagePut) for svcMessagePut
    rt_cmsis.o(i.osMutexCreate) refers to rt_cmsis.o(i.svcMutexCreate) for svcMutexCreate
    rt_cmsis.o(i.osMutexCreate) refers to rt_cmsis.o(.data) for .data
    rt_cmsis.o(i.osMutexDelete) refers to rt_cmsis.o(i.svcMutexDelete) for svcMutexDelete
    rt_cmsis.o(i.osMutexRelease) refers to rt_cmsis.o(i.svcMutexRelease) for svcMutexRelease
    rt_cmsis.o(i.osMutexWait) refers to rt_cmsis.o(i.svcMutexWait) for svcMutexWait
    rt_cmsis.o(i.osPoolAlloc) refers to rt_cmsis.o(i.sysPoolAlloc) for sysPoolAlloc
    rt_cmsis.o(i.osPoolCAlloc) refers to rt_cmsis.o(i.rt_clr_box) for rt_clr_box
    rt_cmsis.o(i.osPoolCAlloc) refers to rt_cmsis.o(i.sysPoolAlloc) for sysPoolAlloc
    rt_cmsis.o(i.osPoolCreate) refers to rt_cmsis.o(i.svcPoolCreate) for svcPoolCreate
    rt_cmsis.o(i.osPoolCreate) refers to rt_cmsis.o(.data) for .data
    rt_cmsis.o(i.osPoolFree) refers to rt_cmsis.o(i.sysPoolFree) for sysPoolFree
    rt_cmsis.o(i.osSemaphoreCreate) refers to rt_cmsis.o(i.svcSemaphoreCreate) for svcSemaphoreCreate
    rt_cmsis.o(i.osSemaphoreCreate) refers to rt_cmsis.o(.data) for .data
    rt_cmsis.o(i.osSemaphoreDelete) refers to rt_cmsis.o(i.svcSemaphoreDelete) for svcSemaphoreDelete
    rt_cmsis.o(i.osSemaphoreRelease) refers to rt_cmsis.o(i.isrSemaphoreRelease) for isrSemaphoreRelease
    rt_cmsis.o(i.osSemaphoreRelease) refers to rt_cmsis.o(i.svcSemaphoreRelease) for svcSemaphoreRelease
    rt_cmsis.o(i.osSemaphoreWait) refers to rt_cmsis.o(i.svcSemaphoreWait) for svcSemaphoreWait
    rt_cmsis.o(i.osSignalClear) refers to rt_cmsis.o(i.svcSignalClear) for svcSignalClear
    rt_cmsis.o(i.osSignalSet) refers to rt_cmsis.o(i.isrSignalSet) for isrSignalSet
    rt_cmsis.o(i.osSignalSet) refers to rt_cmsis.o(i.svcSignalSet) for svcSignalSet
    rt_cmsis.o(i.osSignalWait) refers to rt_cmsis.o(i.svcSignalWait) for svcSignalWait
    rt_cmsis.o(i.osThreadCreate) refers to rt_cmsis.o(i.svcThreadCreate) for svcThreadCreate
    rt_cmsis.o(i.osThreadCreate) refers to rt_cmsis.o(.data) for .data
    rt_cmsis.o(i.osThreadExit) refers to rt_cmsis.o(i.svcThreadGetId) for svcThreadGetId
    rt_cmsis.o(i.osThreadExit) refers to rt_cmsis.o(i.svcThreadTerminate) for svcThreadTerminate
    rt_cmsis.o(i.osThreadGetId) refers to rt_cmsis.o(i.svcThreadGetId) for svcThreadGetId
    rt_cmsis.o(i.osThreadGetPriority) refers to rt_cmsis.o(i.svcThreadGetPriority) for svcThreadGetPriority
    rt_cmsis.o(i.osThreadSetPriority) refers to rt_cmsis.o(i.svcThreadSetPriority) for svcThreadSetPriority
    rt_cmsis.o(i.osThreadTerminate) refers to rt_cmsis.o(i.svcThreadTerminate) for svcThreadTerminate
    rt_cmsis.o(i.osThreadYield) refers to rt_cmsis.o(i.svcThreadYield) for svcThreadYield
    rt_cmsis.o(i.osTimerCall) refers to rt_cmsis.o(i.svcTimerCall) for svcTimerCall
    rt_cmsis.o(i.osTimerCreate) refers to rt_cmsis.o(i.svcTimerCreate) for svcTimerCreate
    rt_cmsis.o(i.osTimerCreate) refers to rt_cmsis.o(.data) for .data
    rt_cmsis.o(i.osTimerDelete) refers to rt_cmsis.o(i.svcTimerDelete) for svcTimerDelete
    rt_cmsis.o(i.osTimerStart) refers to rt_cmsis.o(i.svcTimerStart) for svcTimerStart
    rt_cmsis.o(i.osTimerStop) refers to rt_cmsis.o(i.svcTimerStop) for svcTimerStop
    rt_cmsis.o(i.osTimerThread) refers to rt_cmsis.o(i.osMessageGet) for osMessageGet
    rt_cmsis.o(i.osTimerThread) refers to rt_cmsis.o(i.osTimerCall) for osTimerCall
    rt_cmsis.o(i.osTimerThread) refers to rtx_conf_cm.o(.data) for osMessageQId_osTimerMessageQ
    rt_cmsis.o(i.os_resume) refers to rt_system.o(i.rt_resume) for rt_resume
    rt_cmsis.o(i.os_suspend) refers to rt_system.o(i.rt_suspend) for rt_suspend
    rt_cmsis.o(i.rt_ms2tick) refers to rtx_conf_cm.o(.constdata) for os_clockrate
    rt_cmsis.o(i.rt_timer_insert) refers to rt_cmsis.o(.data) for .data
    rt_cmsis.o(i.rt_timer_remove) refers to rt_cmsis.o(.data) for .data
    rt_cmsis.o(i.svcDelay) refers to rt_cmsis.o(i.rt_ms2tick) for rt_ms2tick
    rt_cmsis.o(i.svcDelay) refers to rt_time.o(i.rt_dly_wait) for rt_dly_wait
    rt_cmsis.o(i.svcKernelInitialize) refers to rt_memory.o(i.rt_init_mem) for rt_init_mem
    rt_cmsis.o(i.svcKernelInitialize) refers to rt_task.o(i.rt_sys_init) for rt_sys_init
    rt_cmsis.o(i.svcKernelInitialize) refers to rt_cmsis.o(i.svcMessageCreate) for svcMessageCreate
    rt_cmsis.o(i.svcKernelInitialize) refers to rt_cmsis.o(i.svcThreadCreate) for svcThreadCreate
    rt_cmsis.o(i.svcKernelInitialize) refers to rt_cmsis.o(.data) for .data
    rt_cmsis.o(i.svcKernelInitialize) refers to rtx_conf_cm.o(.bss) for os_stack_mem
    rt_cmsis.o(i.svcKernelInitialize) refers to rtx_conf_cm.o(.constdata) for os_stack_sz
    rt_cmsis.o(i.svcKernelInitialize) refers to rt_task.o(.data) for os_tsk
    rt_cmsis.o(i.svcKernelInitialize) refers to rtx_conf_cm.o(.constdata) for os_messageQ_def_osTimerMessageQ
    rt_cmsis.o(i.svcKernelInitialize) refers to rtx_conf_cm.o(.data) for osMessageQId_osTimerMessageQ
    rt_cmsis.o(i.svcKernelInitialize) refers to rtx_conf_cm.o(.constdata) for os_thread_def_osTimerThread
    rt_cmsis.o(i.svcKernelInitialize) refers to rtx_conf_cm.o(.data) for osThreadId_osTimerThread
    rt_cmsis.o(i.svcKernelRunning) refers to rt_cmsis.o(.data) for .data
    rt_cmsis.o(i.svcKernelStart) refers to rt_task.o(i.rt_tsk_prio) for rt_tsk_prio
    rt_cmsis.o(i.svcKernelStart) refers to rt_task.o(i.rt_sys_start) for rt_sys_start
    rt_cmsis.o(i.svcKernelStart) refers to rt_cmsis.o(.data) for .data
    rt_cmsis.o(i.svcKernelStart) refers to rt_task.o(.data) for os_tsk
    rt_cmsis.o(i.svcKernelSysTick) refers to rt_system.o(i.os_tick_val) for os_tick_val
    rt_cmsis.o(i.svcKernelSysTick) refers to rt_system.o(i.os_tick_ovf) for os_tick_ovf
    rt_cmsis.o(i.svcKernelSysTick) refers to rtx_conf_cm.o(.constdata) for os_trv
    rt_cmsis.o(i.svcKernelSysTick) refers to rt_time.o(.data) for os_time
    rt_cmsis.o(i.svcMailCreate) refers to rt_membox.o(i._init_box) for _init_box
    rt_cmsis.o(i.svcMailCreate) refers to rt_mailbox.o(i.rt_mbx_init) for rt_mbx_init
    rt_cmsis.o(i.svcMessageCreate) refers to rt_mailbox.o(i.rt_mbx_init) for rt_mbx_init
    rt_cmsis.o(i.svcMessageGet) refers to rt_cmsis.o(i.rt_ms2tick) for rt_ms2tick
    rt_cmsis.o(i.svcMessageGet) refers to rt_mailbox.o(i.rt_mbx_wait) for rt_mbx_wait
    rt_cmsis.o(i.svcMessagePut) refers to rt_cmsis.o(i.rt_ms2tick) for rt_ms2tick
    rt_cmsis.o(i.svcMessagePut) refers to rt_mailbox.o(i.rt_mbx_send) for rt_mbx_send
    rt_cmsis.o(i.svcMutexCreate) refers to rt_mutex.o(i.rt_mut_init) for rt_mut_init
    rt_cmsis.o(i.svcMutexDelete) refers to rt_cmsis.o(i.rt_id2obj) for rt_id2obj
    rt_cmsis.o(i.svcMutexDelete) refers to rt_mutex.o(i.rt_mut_delete) for rt_mut_delete
    rt_cmsis.o(i.svcMutexRelease) refers to rt_cmsis.o(i.rt_id2obj) for rt_id2obj
    rt_cmsis.o(i.svcMutexRelease) refers to rt_mutex.o(i.rt_mut_release) for rt_mut_release
    rt_cmsis.o(i.svcMutexWait) refers to rt_cmsis.o(i.rt_id2obj) for rt_id2obj
    rt_cmsis.o(i.svcMutexWait) refers to rt_cmsis.o(i.rt_ms2tick) for rt_ms2tick
    rt_cmsis.o(i.svcMutexWait) refers to rt_mutex.o(i.rt_mut_wait) for rt_mut_wait
    rt_cmsis.o(i.svcPoolCreate) refers to rt_membox.o(i._init_box) for _init_box
    rt_cmsis.o(i.svcSemaphoreCreate) refers to rt_semaphore.o(i.rt_sem_init) for rt_sem_init
    rt_cmsis.o(i.svcSemaphoreDelete) refers to rt_cmsis.o(i.rt_id2obj) for rt_id2obj
    rt_cmsis.o(i.svcSemaphoreDelete) refers to rt_semaphore.o(i.rt_sem_delete) for rt_sem_delete
    rt_cmsis.o(i.svcSemaphoreRelease) refers to rt_cmsis.o(i.rt_id2obj) for rt_id2obj
    rt_cmsis.o(i.svcSemaphoreRelease) refers to rt_semaphore.o(i.rt_sem_send) for rt_sem_send
    rt_cmsis.o(i.svcSemaphoreWait) refers to rt_cmsis.o(i.rt_id2obj) for rt_id2obj
    rt_cmsis.o(i.svcSemaphoreWait) refers to rt_cmsis.o(i.rt_ms2tick) for rt_ms2tick
    rt_cmsis.o(i.svcSemaphoreWait) refers to rt_semaphore.o(i.rt_sem_wait) for rt_sem_wait
    rt_cmsis.o(i.svcSignalClear) refers to rt_cmsis.o(i.rt_tid2ptcb) for rt_tid2ptcb
    rt_cmsis.o(i.svcSignalClear) refers to rt_event.o(i.rt_evt_clr) for rt_evt_clr
    rt_cmsis.o(i.svcSignalSet) refers to rt_cmsis.o(i.rt_tid2ptcb) for rt_tid2ptcb
    rt_cmsis.o(i.svcSignalSet) refers to rt_event.o(i.rt_evt_set) for rt_evt_set
    rt_cmsis.o(i.svcSignalWait) refers to rt_cmsis.o(i.rt_ms2tick) for rt_ms2tick
    rt_cmsis.o(i.svcSignalWait) refers to rt_event.o(i.rt_evt_wait) for rt_evt_wait
    rt_cmsis.o(i.svcSignalWait) refers to rt_task.o(.data) for os_tsk
    rt_cmsis.o(i.svcThreadCreate) refers to rt_memory.o(i.rt_alloc_mem) for rt_alloc_mem
    rt_cmsis.o(i.svcThreadCreate) refers to rt_task.o(i.rt_tsk_create) for rt_tsk_create
    rt_cmsis.o(i.svcThreadCreate) refers to rt_memory.o(i.rt_free_mem) for rt_free_mem
    rt_cmsis.o(i.svcThreadCreate) refers to rtx_conf_cm.o(.bss) for os_stack_mem
    rt_cmsis.o(i.svcThreadCreate) refers to rtx_conf_cm.o(.bss) for os_active_TCB
    rt_cmsis.o(i.svcThreadCreate) refers to rt_cmsis.o(i.osThreadExit) for osThreadExit
    rt_cmsis.o(i.svcThreadGetId) refers to rt_task.o(i.rt_tsk_self) for rt_tsk_self
    rt_cmsis.o(i.svcThreadGetId) refers to rtx_conf_cm.o(.bss) for os_active_TCB
    rt_cmsis.o(i.svcThreadGetPriority) refers to rt_cmsis.o(i.rt_tid2ptcb) for rt_tid2ptcb
    rt_cmsis.o(i.svcThreadSetPriority) refers to rt_cmsis.o(i.rt_tid2ptcb) for rt_tid2ptcb
    rt_cmsis.o(i.svcThreadSetPriority) refers to rt_task.o(i.rt_tsk_prio) for rt_tsk_prio
    rt_cmsis.o(i.svcThreadTerminate) refers to rt_cmsis.o(i.rt_tid2ptcb) for rt_tid2ptcb
    rt_cmsis.o(i.svcThreadTerminate) refers to rt_task.o(i.rt_tsk_delete) for rt_tsk_delete
    rt_cmsis.o(i.svcThreadTerminate) refers to rt_memory.o(i.rt_free_mem) for rt_free_mem
    rt_cmsis.o(i.svcThreadTerminate) refers to rtx_conf_cm.o(.bss) for os_stack_mem
    rt_cmsis.o(i.svcThreadYield) refers to rt_task.o(i.rt_tsk_pass) for rt_tsk_pass
    rt_cmsis.o(i.svcTimerCall) refers to rt_cmsis.o(i.rt_id2obj) for rt_id2obj
    rt_cmsis.o(i.svcTimerCreate) refers to rtx_conf_cm.o(.data) for osThreadId_osTimerThread
    rt_cmsis.o(i.svcTimerDelete) refers to rt_cmsis.o(i.rt_id2obj) for rt_id2obj
    rt_cmsis.o(i.svcTimerDelete) refers to rt_cmsis.o(i.rt_timer_remove) for rt_timer_remove
    rt_cmsis.o(i.svcTimerStart) refers to rt_cmsis.o(i.rt_id2obj) for rt_id2obj
    rt_cmsis.o(i.svcTimerStart) refers to uldiv.o(.text) for __aeabi_uldivmod
    rt_cmsis.o(i.svcTimerStart) refers to rt_cmsis.o(i.rt_timer_remove) for rt_timer_remove
    rt_cmsis.o(i.svcTimerStart) refers to rt_cmsis.o(i.rt_timer_insert) for rt_timer_insert
    rt_cmsis.o(i.svcTimerStart) refers to rtx_conf_cm.o(.constdata) for os_clockrate
    rt_cmsis.o(i.svcTimerStop) refers to rt_cmsis.o(i.rt_id2obj) for rt_id2obj
    rt_cmsis.o(i.svcTimerStop) refers to rt_cmsis.o(i.rt_timer_remove) for rt_timer_remove
    rt_cmsis.o(i.sysMailAlloc) refers to rt_membox.o(i.rt_alloc_box) for rt_alloc_box
    rt_cmsis.o(i.sysMailAlloc) refers to rt_list.o(i.rt_put_prio) for rt_put_prio
    rt_cmsis.o(i.sysMailAlloc) refers to rt_cmsis.o(i.rt_ms2tick) for rt_ms2tick
    rt_cmsis.o(i.sysMailAlloc) refers to rt_task.o(i.rt_block) for rt_block
    rt_cmsis.o(i.sysMailAlloc) refers to rt_task.o(.data) for os_tsk
    rt_cmsis.o(i.sysMailFree) refers to rt_membox.o(i.rt_free_box) for rt_free_box
    rt_cmsis.o(i.sysMailFree) refers to rt_list.o(i.rt_psq_enq) for rt_psq_enq
    rt_cmsis.o(i.sysMailFree) refers to rt_system.o(i.rt_psh_req) for rt_psh_req
    rt_cmsis.o(i.sysMailFree) refers to rt_membox.o(i.rt_alloc_box) for rt_alloc_box
    rt_cmsis.o(i.sysMailFree) refers to rt_list.o(i.rt_get_first) for rt_get_first
    rt_cmsis.o(i.sysMailFree) refers to hal_cm.o(i.rt_ret_val) for rt_ret_val
    rt_cmsis.o(i.sysMailFree) refers to rt_list.o(i.rt_rmv_dly) for rt_rmv_dly
    rt_cmsis.o(i.sysMailFree) refers to rt_task.o(i.rt_dispatch) for rt_dispatch
    rt_cmsis.o(i.sysPoolAlloc) refers to rt_membox.o(i.rt_alloc_box) for rt_alloc_box
    rt_cmsis.o(i.sysPoolFree) refers to rt_membox.o(i.rt_free_box) for rt_free_box
    rt_cmsis.o(i.sysTimerTick) refers to rt_cmsis.o(i.isrMessagePut) for isrMessagePut
    rt_cmsis.o(i.sysTimerTick) refers to rtx_conf_cm.o(.text) for os_error
    rt_cmsis.o(i.sysTimerTick) refers to rt_cmsis.o(i.rt_timer_insert) for rt_timer_insert
    rt_cmsis.o(i.sysTimerTick) refers to rt_cmsis.o(.data) for .data
    rt_cmsis.o(i.sysTimerTick) refers to rtx_conf_cm.o(.data) for osMessageQId_osTimerMessageQ
    rt_cmsis.o(i.sysUserTimerUpdate) refers to rt_cmsis.o(i.sysTimerTick) for sysTimerTick
    rt_cmsis.o(i.sysUserTimerUpdate) refers to rt_cmsis.o(.data) for .data
    rt_cmsis.o(i.sysUserTimerWakeupTime) refers to rt_cmsis.o(.data) for .data
    net_eth.o(i.eth_check_link) refers to net_config.o(.constdata) for net_eth0_config
    net_eth.o(i.eth_check_link) refers to net_eth.o(.bss) for .bss
    net_eth.o(i.eth_check_link) refers to net_sys.o(.bss) for net_sys_control
    net_eth.o(i.eth_lock) refers to net_config.o(.text) for netif_lock
    net_eth.o(i.eth_lock) refers to net_eth.o(.bss) for .bss
    net_eth.o(i.eth_notify) refers to net_config.o(.text) for netos_flag_set
    net_eth.o(i.eth_notify) refers to net_eth.o(.bss) for .bss
    net_eth.o(i.eth_opt_len) refers to net_eth.o(.bss) for .bss
    net_eth.o(i.eth_receive) refers to net_mem.o(i.net_mem_alloc) for net_mem_alloc
    net_eth.o(i.eth_receive) refers to net_sys.o(i.net_sys_wakeup) for net_sys_wakeup
    net_eth.o(i.eth_receive) refers to net_config.o(.constdata) for net_eth0_config
    net_eth.o(i.eth_receive) refers to net_eth.o(.bss) for .bss
    net_eth.o(i.eth_unlock) refers to net_config.o(.text) for netif_unlock
    net_eth.o(i.eth_unlock) refers to net_eth.o(.bss) for .bss
    net_eth.o(i.netETH_SendRaw) refers to net_sys.o(i.net_sys_lock) for net_sys_lock
    net_eth.o(i.netETH_SendRaw) refers to net_eth.o(i.eth_lock) for eth_lock
    net_eth.o(i.netETH_SendRaw) refers to net_eth.o(i.eth_unlock) for eth_unlock
    net_eth.o(i.netETH_SendRaw) refers to net_sys.o(i.net_sys_unlock) for net_sys_unlock
    net_eth.o(i.netETH_SendRaw) refers to net_eth.o(.bss) for .bss
    net_eth.o(i.netETH_SendRaw) refers to net_config.o(.constdata) for net_eth0_config
    net_eth.o(i.netETH_Thread) refers to net_config.o(.text) for netos_flag_wait
    net_eth.o(i.netETH_Thread) refers to net_eth.o(i.eth_lock) for eth_lock
    net_eth.o(i.netETH_Thread) refers to net_eth.o(i.eth_receive) for eth_receive
    net_eth.o(i.netETH_Thread) refers to net_eth.o(i.eth_check_link) for eth_check_link
    net_eth.o(i.netETH_Thread) refers to net_eth.o(i.eth_unlock) for eth_unlock
    net_eth.o(i.netETH_Thread) refers to net_eth.o(.bss) for .bss
    net_eth.o(i.net_eth_get_addr) refers to net_ndp.o(i.net_ndp_find_mac) for net_ndp_find_mac
    net_eth.o(i.net_eth_get_addr) refers to net_arp.o(i.net_arp_find_mac) for net_arp_find_mac
    net_eth.o(i.net_eth_get_option) refers to net_eth.o(i.eth_opt_len) for eth_opt_len
    net_eth.o(i.net_eth_get_option) refers to net_addr.o(i.net_addr6_copy) for net_addr6_copy
    net_eth.o(i.net_eth_get_option) refers to net_config.o(.constdata) for net_localm
    net_eth.o(i.net_eth_get_option) refers to net_config.o(.constdata) for net_localm6
    net_eth.o(i.net_eth_get_option) refers to net_config.o(.constdata) for net_eth0_config
    net_eth.o(i.net_eth_iface_init) refers to memseta.o(.text) for __aeabi_memclr4
    net_eth.o(i.net_eth_iface_init) refers to net_addr.o(i.netMAC_aton) for netMAC_aton
    net_eth.o(i.net_eth_iface_init) refers to net_config.o(.text) for net_sys_error
    net_eth.o(i.net_eth_iface_init) refers to net_eth.o(i.netETH_Notify) for netETH_Notify
    net_eth.o(i.net_eth_iface_init) refers to net_eth.o(i.eth_mtu_limit) for eth_mtu_limit
    net_eth.o(i.net_eth_iface_init) refers to net_addr.o(i.net_addr4_aton) for net_addr4_aton
    net_eth.o(i.net_eth_iface_init) refers to net_arp.o(i.net_arp_init) for net_arp_init
    net_eth.o(i.net_eth_iface_init) refers to net_addr.o(i.net_addr6_aton) for net_addr6_aton
    net_eth.o(i.net_eth_iface_init) refers to net_ndp.o(i.net_ndp_init) for net_ndp_init
    net_eth.o(i.net_eth_iface_init) refers to net_common.o(i.net_crc32_buf) for net_crc32_buf
    net_eth.o(i.net_eth_iface_init) refers to net_eth.o(.bss) for .bss
    net_eth.o(i.net_eth_iface_init) refers to net_config.o(.constdata) for net_eth0_config
    net_eth.o(i.net_eth_iface_init) refers to net_eth.o(i.eth_notify) for eth_notify
    net_eth.o(i.net_eth_iface_init) refers to net_config.o(.constdata) for net_localm
    net_eth.o(i.net_eth_iface_init) refers to net_config.o(.constdata) for net_localm6
    net_eth.o(i.net_eth_iface_init) refers to net_sys.o(.bss) for net_sys_control
    net_eth.o(i.net_eth_iface_run) refers to net_eth.o(i.netETH_Notify) for netETH_Notify
    net_eth.o(i.net_eth_iface_run) refers to net_arp.o(i.net_arp_run) for net_arp_run
    net_eth.o(i.net_eth_iface_run) refers to net_ndp.o(i.net_ndp_run) for net_ndp_run
    net_eth.o(i.net_eth_iface_run) refers to net_eth.o(i.netETH_ReceiveRaw) for netETH_ReceiveRaw
    net_eth.o(i.net_eth_iface_run) refers to net_mem.o(i.net_mem_free) for net_mem_free
    net_eth.o(i.net_eth_iface_run) refers to net_eth.o(i.net_eth_update_filter) for net_eth_update_filter
    net_eth.o(i.net_eth_iface_run) refers to net_arp.o(i.net_arp_process) for net_arp_process
    net_eth.o(i.net_eth_iface_run) refers to net_ip4.o(i.net_ip4_chk_frame) for net_ip4_chk_frame
    net_eth.o(i.net_eth_iface_run) refers to net_arp.o(i.net_arp_cache_early) for net_arp_cache_early
    net_eth.o(i.net_eth_iface_run) refers to net_arp.o(i.net_arp_cache_add) for net_arp_cache_add
    net_eth.o(i.net_eth_iface_run) refers to net_ip4.o(i.net_ip4_reass_frame) for net_ip4_reass_frame
    net_eth.o(i.net_eth_iface_run) refers to net_icmp.o(i.net_icmp_process) for net_icmp_process
    net_eth.o(i.net_eth_iface_run) refers to net_config.o(.text) for net_igmp_process
    net_eth.o(i.net_eth_iface_run) refers to net_ip6.o(i.net_ip6_chk_frame) for net_ip6_chk_frame
    net_eth.o(i.net_eth_iface_run) refers to net_ndp.o(i.net_ndp_cache_refresh) for net_ndp_cache_refresh
    net_eth.o(i.net_eth_iface_run) refers to net_icmp6.o(i.net_icmp6_process) for net_icmp6_process
    net_eth.o(i.net_eth_iface_run) refers to net_udp.o(i.net_udp_process) for net_udp_process
    net_eth.o(i.net_eth_iface_run) refers to net_tcp.o(i.net_tcp_process) for net_tcp_process
    net_eth.o(i.net_eth_iface_run) refers to net_sys.o(.bss) for net_sys_control
    net_eth.o(i.net_eth_iface_run) refers to net_eth.o(.bss) for .bss
    net_eth.o(i.net_eth_iface_run) refers to net_eth.o(.constdata) for .constdata
    net_eth.o(i.net_eth_is_my_addr) refers to net_config.o(.constdata) for net_eth0_config
    net_eth.o(i.net_eth_output) refers to net_eth.o(i.eth_lock) for eth_lock
    net_eth.o(i.net_eth_output) refers to net_eth.o(i.eth_unlock) for eth_unlock
    net_eth.o(i.net_eth_output) refers to net_config.o(.constdata) for net_eth0_config
    net_eth.o(i.net_eth_send_frame) refers to net_eth.o(i.eth_make_mcast4) for eth_make_mcast4
    net_eth.o(i.net_eth_send_frame) refers to net_ip4.o(i.net_ip4_is_subcast) for net_ip4_is_subcast
    net_eth.o(i.net_eth_send_frame) refers to net_arp.o(i.net_arp_cache_find) for net_arp_cache_find
    net_eth.o(i.net_eth_send_frame) refers to net_addr.o(i.net_addr6_is_unspec) for net_addr6_is_unspec
    net_eth.o(i.net_eth_send_frame) refers to net_eth.o(i.eth_make_mcast6) for eth_make_mcast6
    net_eth.o(i.net_eth_send_frame) refers to net_ndp.o(i.net_ndp_cache_find) for net_ndp_cache_find
    net_eth.o(i.net_eth_send_frame) refers to net_eth.o(i.net_eth_output) for net_eth_output
    net_eth.o(i.net_eth_send_frame) refers to net_eth.o(.bss) for .bss
    net_eth.o(i.net_eth_send_frame) refers to net_ip4.o(.constdata) for net_addr4_bcast
    net_eth.o(i.net_eth_send_frame) refers to net_eth.o(.constdata) for .constdata
    net_eth.o(i.net_eth_send_frame) refers to net_config.o(.constdata) for net_eth0_config
    net_eth.o(i.net_eth_set_option) refers to net_eth.o(i.eth_opt_len) for eth_opt_len
    net_eth.o(i.net_eth_set_option) refers to net_eth.o(i.eth_lock) for eth_lock
    net_eth.o(i.net_eth_set_option) refers to net_eth.o(i.eth_unlock) for eth_unlock
    net_eth.o(i.net_eth_set_option) refers to net_eth.o(i.eth_mtu_limit) for eth_mtu_limit
    net_eth.o(i.net_eth_set_option) refers to net_addr.o(i.net_addr6_copy) for net_addr6_copy
    net_eth.o(i.net_eth_set_option) refers to net_config.o(.constdata) for net_localm
    net_eth.o(i.net_eth_set_option) refers to net_config.o(.constdata) for net_localm6
    net_eth.o(i.net_eth_set_option) refers to net_config.o(.constdata) for net_eth0_config
    net_eth.o(i.net_eth_update_filter) refers to net_mem.o(i.net_mem_alloc) for net_mem_alloc
    net_eth.o(i.net_eth_update_filter) refers to net_config.o(.text) for net_igmp_collect_addr
    net_eth.o(i.net_eth_update_filter) refers to net_eth.o(i.eth_make_mcast4) for eth_make_mcast4
    net_eth.o(i.net_eth_update_filter) refers to net_addr.o(i.net_addr6_is_unspec) for net_addr6_is_unspec
    net_eth.o(i.net_eth_update_filter) refers to net_eth.o(i.eth_make_mcast6) for eth_make_mcast6
    net_eth.o(i.net_eth_update_filter) refers to net_eth.o(i.eth_lock) for eth_lock
    net_eth.o(i.net_eth_update_filter) refers to net_eth.o(i.eth_unlock) for eth_unlock
    net_eth.o(i.net_eth_update_filter) refers to net_mem.o(i.net_mem_free) for net_mem_free
    net_eth.o(i.net_eth_update_filter) refers to net_eth.o(.bss) for .bss
    net_eth.o(i.net_eth_update_filter) refers to net_config.o(.constdata) for net_localm6
    net_eth.o(i.net_eth_update_filter) refers to net_ip6.o(.constdata) for net_addr6_all_nodes
    net_eth.o(i.net_eth_update_filter) refers to net_config.o(.constdata) for net_eth0_config
    net_arp.o(i.arp_cache_alloc) refers to net_config.o(.constdata) for net_eth0_config
    net_arp.o(i.arp_is_cacheable) refers to net_config.o(.constdata) for net_localm
    net_arp.o(i.arp_probe_run) refers to net_arp.o(i.arp_send_request) for arp_send_request
    net_arp.o(i.arp_probe_run) refers to net_arp.o(.bss) for .bss
    net_arp.o(i.arp_proc_response) refers to net_config.o(.constdata) for net_eth0_config
    net_arp.o(i.arp_send_reply) refers to net_mem.o(i.net_mem_alloc) for net_mem_alloc
    net_arp.o(i.arp_send_reply) refers to net_eth.o(i.net_eth_output) for net_eth_output
    net_arp.o(i.arp_send_reply) refers to net_mem.o(i.net_mem_free) for net_mem_free
    net_arp.o(i.arp_send_reply) refers to net_config.o(.constdata) for net_eth0_config
    net_arp.o(i.arp_send_reply) refers to net_config.o(.constdata) for net_localm
    net_arp.o(i.arp_send_request) refers to net_mem.o(i.net_mem_alloc) for net_mem_alloc
    net_arp.o(i.arp_send_request) refers to net_eth.o(i.net_eth_output) for net_eth_output
    net_arp.o(i.arp_send_request) refers to net_mem.o(i.net_mem_free) for net_mem_free
    net_arp.o(i.arp_send_request) refers to net_config.o(.constdata) for net_eth0_config
    net_arp.o(i.arp_send_request) refers to net_eth.o(.constdata) for net_mac_bcast
    net_arp.o(i.arp_send_request) refers to net_addr.o(.constdata) for net_addr_null
    net_arp.o(i.netARP_CacheIP) refers to net_sys.o(i.net_sys_lock) for net_sys_lock
    net_arp.o(i.netARP_CacheIP) refers to net_arp.o(i.arp_is_cacheable) for arp_is_cacheable
    net_arp.o(i.netARP_CacheIP) refers to net_arp.o(i.net_arp_cache_find) for net_arp_cache_find
    net_arp.o(i.netARP_CacheIP) refers to net_sys.o(i.net_sys_unlock) for net_sys_unlock
    net_arp.o(i.netARP_CacheMAC) refers to net_sys.o(i.net_sys_lock) for net_sys_lock
    net_arp.o(i.netARP_CacheMAC) refers to net_arp.o(i.arp_cache_alloc) for arp_cache_alloc
    net_arp.o(i.netARP_CacheMAC) refers to net_arp.o(i.arp_send_request) for arp_send_request
    net_arp.o(i.netARP_CacheMAC) refers to net_sys.o(i.net_sys_unlock) for net_sys_unlock
    net_arp.o(i.netARP_CacheMAC) refers to net_addr.o(.constdata) for net_addr_null
    net_arp.o(i.netARP_CacheMAC) refers to net_eth.o(.constdata) for net_mac_bcast
    net_arp.o(i.netARP_CacheMAC) refers to net_config.o(.constdata) for net_eth0_config
    net_arp.o(i.netARP_CacheMAC) refers to net_config.o(.constdata) for net_localm
    net_arp.o(i.netARP_GetIP) refers to net_sys.o(i.net_sys_lock) for net_sys_lock
    net_arp.o(i.netARP_GetIP) refers to net_sys.o(i.net_sys_unlock) for net_sys_unlock
    net_arp.o(i.netARP_GetIP) refers to net_config.o(.constdata) for net_eth0_config
    net_arp.o(i.netARP_GetMAC) refers to net_sys.o(i.net_sys_lock) for net_sys_lock
    net_arp.o(i.netARP_GetMAC) refers to net_arp.o(i.net_arp_find_mac) for net_arp_find_mac
    net_arp.o(i.netARP_GetMAC) refers to net_sys.o(i.net_sys_unlock) for net_sys_unlock
    net_arp.o(i.netARP_Probe) refers to net_sys.o(i.net_sys_lock) for net_sys_lock
    net_arp.o(i.netARP_Probe) refers to net_arp.o(i.arp_send_request) for arp_send_request
    net_arp.o(i.netARP_Probe) refers to net_sys.o(i.net_sys_unlock) for net_sys_unlock
    net_arp.o(i.netARP_Probe) refers to net_arp.o(.bss) for .bss
    net_arp.o(i.net_arp_cache_add) refers to net_arp.o(i.arp_is_cacheable) for arp_is_cacheable
    net_arp.o(i.net_arp_cache_add) refers to net_addr.o(i.net_addr4_is_subnet) for net_addr4_is_subnet
    net_arp.o(i.net_arp_cache_add) refers to net_arp.o(i.arp_cache_alloc) for arp_cache_alloc
    net_arp.o(i.net_arp_cache_add) refers to net_config.o(.constdata) for net_eth0_config
    net_arp.o(i.net_arp_cache_add) refers to net_config.o(.constdata) for net_localm
    net_arp.o(i.net_arp_cache_early) refers to net_arp.o(i.arp_is_cacheable) for arp_is_cacheable
    net_arp.o(i.net_arp_cache_early) refers to net_addr.o(i.net_addr4_is_subnet) for net_addr4_is_subnet
    net_arp.o(i.net_arp_cache_early) refers to net_arp.o(i.arp_cache_alloc) for arp_cache_alloc
    net_arp.o(i.net_arp_cache_early) refers to net_arp.o(i.arp_send_request) for arp_send_request
    net_arp.o(i.net_arp_cache_early) refers to net_config.o(.constdata) for net_eth0_config
    net_arp.o(i.net_arp_cache_early) refers to net_config.o(.constdata) for net_localm
    net_arp.o(i.net_arp_cache_find) refers to net_addr.o(i.net_addr4_is_subnet) for net_addr4_is_subnet
    net_arp.o(i.net_arp_cache_find) refers to net_arp.o(i.arp_cache_alloc) for arp_cache_alloc
    net_arp.o(i.net_arp_cache_find) refers to net_arp.o(i.arp_send_request) for arp_send_request
    net_arp.o(i.net_arp_cache_find) refers to net_config.o(.constdata) for net_localm
    net_arp.o(i.net_arp_cache_find) refers to net_config.o(.constdata) for net_eth0_config
    net_arp.o(i.net_arp_cache_find) refers to net_eth.o(.constdata) for net_mac_bcast
    net_arp.o(i.net_arp_find_mac) refers to net_config.o(.constdata) for net_eth0_config
    net_arp.o(i.net_arp_init) refers to net_config.o(.constdata) for net_eth0_config
    net_arp.o(i.net_arp_init) refers to net_arp.o(.bss) for .bss
    net_arp.o(i.net_arp_notify) refers to net_arp.o(i.arp_send_request) for arp_send_request
    net_arp.o(i.net_arp_notify) refers to net_arp.o(.bss) for .bss
    net_arp.o(i.net_arp_notify) refers to net_config.o(.constdata) for net_eth0_config
    net_arp.o(i.net_arp_notify) refers to net_config.o(.constdata) for net_localm
    net_arp.o(i.net_arp_probe) refers to net_arp.o(i.arp_send_request) for arp_send_request
    net_arp.o(i.net_arp_probe) refers to net_arp.o(.bss) for .bss
    net_arp.o(i.net_arp_process) refers to net_arp.o(i.net_arp_cache_add) for net_arp_cache_add
    net_arp.o(i.net_arp_process) refers to net_arp.o(i.arp_send_reply) for arp_send_reply
    net_arp.o(i.net_arp_process) refers to net_arp.o(i.arp_proc_response) for arp_proc_response
    net_arp.o(i.net_arp_process) refers to net_config.o(.constdata) for net_localm
    net_arp.o(i.net_arp_process) refers to net_config.o(.constdata) for net_eth0_config
    net_arp.o(i.net_arp_process) refers to net_arp.o(.bss) for .bss
    net_arp.o(i.net_arp_run) refers to net_arp.o(i.arp_probe_run) for arp_probe_run
    net_arp.o(i.net_arp_run) refers to net_arp.o(i.arp_send_request) for arp_send_request
    net_arp.o(i.net_arp_run) refers to net_arp.o(.data) for .data
    net_arp.o(i.net_arp_run) refers to net_sys.o(.bss) for net_sys_control
    net_arp.o(i.net_arp_run) refers to net_config.o(.constdata) for net_localm
    net_arp.o(i.net_arp_run) refers to net_config.o(.constdata) for net_eth0_config
    net_loop.o(i.net_loop_iface_init) refers to net_ip4.o(i.net_ip4_init) for net_ip4_init
    net_loop.o(i.net_loop_iface_init) refers to net_ip6.o(i.net_ip6_init) for net_ip6_init
    net_loop.o(i.net_loop_iface_init) refers to net_loop.o(.data) for .data
    net_loop.o(i.net_loop_iface_init) refers to net_sys.o(.bss) for net_sys_control
    net_loop.o(i.net_loop_iface_run) refers to net_ip4.o(i.net_ip4_chk_frame) for net_ip4_chk_frame
    net_loop.o(i.net_loop_iface_run) refers to net_icmp.o(i.net_icmp_process) for net_icmp_process
    net_loop.o(i.net_loop_iface_run) refers to net_ip6.o(i.net_ip6_chk_frame) for net_ip6_chk_frame
    net_loop.o(i.net_loop_iface_run) refers to net_icmp6.o(i.net_icmp6_process) for net_icmp6_process
    net_loop.o(i.net_loop_iface_run) refers to net_udp.o(i.net_udp_process) for net_udp_process
    net_loop.o(i.net_loop_iface_run) refers to net_tcp.o(i.net_tcp_process) for net_tcp_process
    net_loop.o(i.net_loop_iface_run) refers to net_mem.o(i.net_mem_free) for net_mem_free
    net_loop.o(i.net_loop_iface_run) refers to net_loop.o(.data) for .data
    net_loop.o(i.net_loop_iface_run) refers to net_sys.o(.bss) for net_sys_control
    net_loop.o(i.net_loop_send_frame) refers to net_mem.o(i.net_mem_alloc) for net_mem_alloc
    net_loop.o(i.net_loop_send_frame) refers to memmovea.o(.text) for __aeabi_memcpy
    net_loop.o(i.net_loop_send_frame) refers to net_loop.o(.data) for .data
    net_udp.o(i.netUDP_Close) refers to net_sys.o(i.net_sys_lock) for net_sys_lock
    net_udp.o(i.netUDP_Close) refers to net_udp.o(i.net_udp_close) for net_udp_close
    net_udp.o(i.netUDP_Close) refers to net_sys.o(i.net_sys_unlock) for net_sys_unlock
    net_udp.o(i.netUDP_GetBuffer) refers to net_udp.o(i.net_udp_get_buf) for net_udp_get_buf
    net_udp.o(i.netUDP_GetLocalPort) refers to net_udp.o(i.net_udp_get_local_port) for net_udp_get_local_port
    net_udp.o(i.netUDP_GetSocket) refers to net_sys.o(i.net_sys_lock) for net_sys_lock
    net_udp.o(i.netUDP_GetSocket) refers to net_udp.o(i.net_udp_get_socket) for net_udp_get_socket
    net_udp.o(i.netUDP_GetSocket) refers to net_sys.o(i.net_sys_unlock) for net_sys_unlock
    net_udp.o(i.netUDP_Open) refers to net_sys.o(i.net_sys_lock) for net_sys_lock
    net_udp.o(i.netUDP_Open) refers to net_udp.o(i.net_udp_open) for net_udp_open
    net_udp.o(i.netUDP_Open) refers to net_sys.o(i.net_sys_unlock) for net_sys_unlock
    net_udp.o(i.netUDP_ReleaseSocket) refers to net_sys.o(i.net_sys_lock) for net_sys_lock
    net_udp.o(i.netUDP_ReleaseSocket) refers to net_udp.o(i.net_udp_release_socket) for net_udp_release_socket
    net_udp.o(i.netUDP_ReleaseSocket) refers to net_sys.o(i.net_sys_unlock) for net_sys_unlock
    net_udp.o(i.netUDP_Send) refers to net_sys.o(i.net_sys_lock) for net_sys_lock
    net_udp.o(i.netUDP_Send) refers to net_udp.o(i.net_udp_send) for net_udp_send
    net_udp.o(i.netUDP_Send) refers to net_sys.o(i.net_sys_unlock) for net_sys_unlock
    net_udp.o(i.netUDP_SetOption) refers to net_sys.o(i.net_sys_lock) for net_sys_lock
    net_udp.o(i.netUDP_SetOption) refers to net_udp.o(i.net_udp_set_option) for net_udp_set_option
    net_udp.o(i.netUDP_SetOption) refers to net_sys.o(i.net_sys_unlock) for net_sys_unlock
    net_udp.o(i.net_udp_close) refers to net_config.o(.constdata) for net_udp_config
    net_udp.o(i.net_udp_free_buf) refers to net_mem.o(i.net_mem_free) for net_mem_free
    net_udp.o(i.net_udp_get_buf) refers to net_mem.o(i.net_mem_alloc) for net_mem_alloc
    net_udp.o(i.net_udp_get_local_port) refers to net_config.o(.constdata) for net_udp_config
    net_udp.o(i.net_udp_get_socket) refers to net_config.o(.text) for net_sys_error
    net_udp.o(i.net_udp_get_socket) refers to net_config.o(.constdata) for net_udp_config
    net_udp.o(i.net_udp_keep_buf) refers to net_config.o(.constdata) for net_udp_config
    net_udp.o(i.net_udp_open) refers to net_udp.o(i.udp_port_in_use) for udp_port_in_use
    net_udp.o(i.net_udp_open) refers to net_config.o(.constdata) for net_udp_config
    net_udp.o(i.net_udp_open) refers to net_udp.o(.data) for .data
    net_udp.o(i.net_udp_process) refers to net_ip6.o(i.net_ip6_checksum) for net_ip6_checksum
    net_udp.o(i.net_udp_process) refers to net_addr.o(i.net_addr6_copy) for net_addr6_copy
    net_udp.o(i.net_udp_process) refers to net_ip4.o(i.net_ip4_checksum) for net_ip4_checksum
    net_udp.o(i.net_udp_process) refers to net_config.o(.constdata) for net_udp_config
    net_udp.o(i.net_udp_process) refers to net_sys.o(.bss) for net_sys_control
    net_udp.o(i.net_udp_process) refers to net_udp.o(.bss) for .bss
    net_udp.o(i.net_udp_release_socket) refers to net_config.o(.constdata) for net_udp_config
    net_udp.o(i.net_udp_send) refers to net_mem.o(i.net_mem_free) for net_mem_free
    net_udp.o(i.net_udp_send) refers to net_addr.o(i.net_addr_is_unspec) for net_addr_is_unspec
    net_udp.o(i.net_udp_send) refers to net_addr.o(i.net_addr_get_local) for net_addr_get_local
    net_udp.o(i.net_udp_send) refers to net_ip6.o(i.net_ip6_tx_offload) for net_ip6_tx_offload
    net_udp.o(i.net_udp_send) refers to net_ip4.o(i.net_ip4_tx_offload) for net_ip4_tx_offload
    net_udp.o(i.net_udp_send) refers to net_ip4.o(i.net_ip4_checksum) for net_ip4_checksum
    net_udp.o(i.net_udp_send) refers to net_ip6.o(i.net_ip6_checksum) for net_ip6_checksum
    net_udp.o(i.net_udp_send) refers to net_ip4.o(i.net_ip4_send_frame) for net_ip4_send_frame
    net_udp.o(i.net_udp_send) refers to net_ip6.o(i.net_ip6_send_frame) for net_ip6_send_frame
    net_udp.o(i.net_udp_send) refers to net_config.o(.constdata) for net_udp_config
    net_udp.o(i.net_udp_set_option) refers to net_config.o(.constdata) for net_udp_config
    net_udp.o(i.net_udp_socket_init) refers to memseta.o(.text) for __aeabi_memclr4
    net_udp.o(i.net_udp_socket_init) refers to net_config.o(.constdata) for net_udp_config
    net_udp.o(i.udp_port_in_use) refers to net_config.o(.constdata) for net_udp_config
    net_tcp.o(i.netTCP_Abort) refers to net_sys.o(i.net_sys_lock) for net_sys_lock
    net_tcp.o(i.netTCP_Abort) refers to net_tcp.o(i.net_tcp_abort) for net_tcp_abort
    net_tcp.o(i.netTCP_Abort) refers to net_sys.o(i.net_sys_unlock) for net_sys_unlock
    net_tcp.o(i.netTCP_Close) refers to net_sys.o(i.net_sys_lock) for net_sys_lock
    net_tcp.o(i.netTCP_Close) refers to net_tcp.o(i.net_tcp_close) for net_tcp_close
    net_tcp.o(i.netTCP_Close) refers to net_sys.o(i.net_sys_unlock) for net_sys_unlock
    net_tcp.o(i.netTCP_Connect) refers to net_sys.o(i.net_sys_lock) for net_sys_lock
    net_tcp.o(i.netTCP_Connect) refers to net_tcp.o(i.net_tcp_connect) for net_tcp_connect
    net_tcp.o(i.netTCP_Connect) refers to net_sys.o(i.net_sys_unlock) for net_sys_unlock
    net_tcp.o(i.netTCP_GetBuffer) refers to net_tcp.o(i.net_tcp_get_buf) for net_tcp_get_buf
    net_tcp.o(i.netTCP_GetLocalPort) refers to net_tcp.o(i.net_tcp_get_local_port) for net_tcp_get_local_port
    net_tcp.o(i.netTCP_GetMaxSegmentSize) refers to net_tcp.o(i.net_tcp_get_mss) for net_tcp_get_mss
    net_tcp.o(i.netTCP_GetPeer) refers to net_sys.o(i.net_sys_lock) for net_sys_lock
    net_tcp.o(i.netTCP_GetPeer) refers to net_tcp.o(i.net_tcp_get_peer) for net_tcp_get_peer
    net_tcp.o(i.netTCP_GetPeer) refers to net_sys.o(i.net_sys_unlock) for net_sys_unlock
    net_tcp.o(i.netTCP_GetSocket) refers to net_sys.o(i.net_sys_lock) for net_sys_lock
    net_tcp.o(i.netTCP_GetSocket) refers to net_tcp.o(i.net_tcp_get_socket) for net_tcp_get_socket
    net_tcp.o(i.netTCP_GetSocket) refers to net_sys.o(i.net_sys_unlock) for net_sys_unlock
    net_tcp.o(i.netTCP_GetState) refers to net_tcp.o(i.net_tcp_get_state) for net_tcp_get_state
    net_tcp.o(i.netTCP_GetTimer) refers to net_tcp.o(i.net_tcp_get_timer) for net_tcp_get_timer
    net_tcp.o(i.netTCP_Listen) refers to net_sys.o(i.net_sys_lock) for net_sys_lock
    net_tcp.o(i.netTCP_Listen) refers to net_tcp.o(i.net_tcp_listen) for net_tcp_listen
    net_tcp.o(i.netTCP_Listen) refers to net_sys.o(i.net_sys_unlock) for net_sys_unlock
    net_tcp.o(i.netTCP_ReleaseSocket) refers to net_sys.o(i.net_sys_lock) for net_sys_lock
    net_tcp.o(i.netTCP_ReleaseSocket) refers to net_tcp.o(i.net_tcp_release_socket) for net_tcp_release_socket
    net_tcp.o(i.netTCP_ReleaseSocket) refers to net_sys.o(i.net_sys_unlock) for net_sys_unlock
    net_tcp.o(i.netTCP_ResetReceiveWindow) refers to net_sys.o(i.net_sys_lock) for net_sys_lock
    net_tcp.o(i.netTCP_ResetReceiveWindow) refers to net_tcp.o(i.net_tcp_reset_window) for net_tcp_reset_window
    net_tcp.o(i.netTCP_ResetReceiveWindow) refers to net_sys.o(i.net_sys_unlock) for net_sys_unlock
    net_tcp.o(i.netTCP_Send) refers to net_sys.o(i.net_sys_lock) for net_sys_lock
    net_tcp.o(i.netTCP_Send) refers to net_tcp.o(i.net_tcp_send) for net_tcp_send
    net_tcp.o(i.netTCP_Send) refers to net_sys.o(i.net_sys_wakeup) for net_sys_wakeup
    net_tcp.o(i.netTCP_Send) refers to net_sys.o(i.net_sys_unlock) for net_sys_unlock
    net_tcp.o(i.netTCP_SendReady) refers to net_tcp.o(i.net_tcp_check_send) for net_tcp_check_send
    net_tcp.o(i.netTCP_SetOption) refers to net_sys.o(i.net_sys_lock) for net_sys_lock
    net_tcp.o(i.netTCP_SetOption) refers to net_tcp.o(i.net_tcp_set_option) for net_tcp_set_option
    net_tcp.o(i.netTCP_SetOption) refers to net_sys.o(i.net_sys_unlock) for net_sys_unlock
    net_tcp.o(i.net_tcp_abort) refers to net_tcp.o(i.tcp_transit) for tcp_transit
    net_tcp.o(i.net_tcp_abort) refers to net_tcp.o(i.tcp_send_ctrl) for tcp_send_ctrl
    net_tcp.o(i.net_tcp_abort) refers to net_config.o(.constdata) for net_tcp_config
    net_tcp.o(i.net_tcp_alloc_port) refers to net_tcp.o(.data) for .data
    net_tcp.o(i.net_tcp_alloc_port) refers to net_config.o(.constdata) for net_tcp_config
    net_tcp.o(i.net_tcp_check_send) refers to net_config.o(.constdata) for net_tcp_config
    net_tcp.o(i.net_tcp_close) refers to net_tcp.o(i.tcp_transit) for tcp_transit
    net_tcp.o(i.net_tcp_close) refers to net_tcp.o(i.tcp_send_ctrl) for tcp_send_ctrl
    net_tcp.o(i.net_tcp_close) refers to net_config.o(.constdata) for net_tcp_config
    net_tcp.o(i.net_tcp_connect) refers to net_addr.o(i.net_addr_is_unspec) for net_addr_is_unspec
    net_tcp.o(i.net_tcp_connect) refers to net_tcp.o(i.net_tcp_alloc_port) for net_tcp_alloc_port
    net_tcp.o(i.net_tcp_connect) refers to net_addr.o(i.net_addr_copy) for net_addr_copy
    net_tcp.o(i.net_tcp_connect) refers to net_addr.o(i.net_addr_get_local) for net_addr_get_local
    net_tcp.o(i.net_tcp_connect) refers to net_sys.o(i.net_rand32) for net_rand32
    net_tcp.o(i.net_tcp_connect) refers to net_tcp.o(i.tcp_send_ctrl) for tcp_send_ctrl
    net_tcp.o(i.net_tcp_connect) refers to net_tcp.o(i.tcp_transit) for tcp_transit
    net_tcp.o(i.net_tcp_connect) refers to net_config.o(.constdata) for net_tcp_config
    net_tcp.o(i.net_tcp_ctrl_opt) refers to net_config.o(.constdata) for net_tcp_config
    net_tcp.o(i.net_tcp_get_buf) refers to net_mem.o(i.net_mem_alloc) for net_mem_alloc
    net_tcp.o(i.net_tcp_get_local_port) refers to net_config.o(.constdata) for net_tcp_config
    net_tcp.o(i.net_tcp_get_mss) refers to net_config.o(.constdata) for net_tcp_config
    net_tcp.o(i.net_tcp_get_peer) refers to net_addr.o(i.net_addr_copy) for net_addr_copy
    net_tcp.o(i.net_tcp_get_peer) refers to net_config.o(.constdata) for net_tcp_config
    net_tcp.o(i.net_tcp_get_socket) refers to net_config.o(.text) for net_sys_error
    net_tcp.o(i.net_tcp_get_socket) refers to net_config.o(.constdata) for net_tcp_config
    net_tcp.o(i.net_tcp_get_state) refers to net_config.o(.constdata) for net_tcp_config
    net_tcp.o(i.net_tcp_get_timer) refers to net_config.o(.constdata) for net_tcp_config
    net_tcp.o(i.net_tcp_listen) refers to memseta.o(.text) for __aeabi_memclr4
    net_tcp.o(i.net_tcp_listen) refers to net_config.o(.constdata) for net_tcp_config
    net_tcp.o(i.net_tcp_ntoa) refers to net_tcp.o(.constdata) for .constdata
    net_tcp.o(i.net_tcp_process) refers to net_tcp.o(i.tcp_map_socket) for tcp_map_socket
    net_tcp.o(i.net_tcp_process) refers to net_ip6.o(i.net_ip6_checksum) for net_ip6_checksum
    net_tcp.o(i.net_tcp_process) refers to net_ip4.o(i.net_ip4_checksum) for net_ip4_checksum
    net_tcp.o(i.net_tcp_process) refers to net_tcp.o(i.tcp_proc_dupack) for tcp_proc_dupack
    net_tcp.o(i.net_tcp_process) refers to net_tcp.o(i.tcp_proc_acknr) for tcp_proc_acknr
    net_tcp.o(i.net_tcp_process) refers to net_tcp.o(i.tcp_transit) for tcp_transit
    net_tcp.o(i.net_tcp_process) refers to net_tcp.o(i.tcp_send_ctrl) for tcp_send_ctrl
    net_tcp.o(i.net_tcp_process) refers to net_tcp.o(i.tcp_parse_opt) for tcp_parse_opt
    net_tcp.o(i.net_tcp_process) refers to net_sys.o(i.net_rand32) for net_rand32
    net_tcp.o(i.net_tcp_process) refers to net_tcp.o(i.tcp_send_reset) for tcp_send_reset
    net_tcp.o(i.net_tcp_process) refers to net_tcp.o(i.tcp_set_cwnd) for tcp_set_cwnd
    net_tcp.o(i.net_tcp_process) refers to net_sys.o(.bss) for net_sys_control
    net_tcp.o(i.net_tcp_process) refers to net_config.o(.constdata) for net_tcp_config
    net_tcp.o(i.net_tcp_process) refers to net_config.o(.text) for net_sys_error
    net_tcp.o(i.net_tcp_release_socket) refers to memseta.o(.text) for __aeabi_memclr4
    net_tcp.o(i.net_tcp_release_socket) refers to net_config.o(.constdata) for net_tcp_config
    net_tcp.o(i.net_tcp_reset_tout) refers to net_config.o(.constdata) for net_tcp_config
    net_tcp.o(i.net_tcp_reset_window) refers to net_tcp.o(i.tcp_send_ctrl) for tcp_send_ctrl
    net_tcp.o(i.net_tcp_reset_window) refers to net_config.o(.constdata) for net_tcp_config
    net_tcp.o(i.net_tcp_send) refers to net_mem.o(i.net_mem_shrink) for net_mem_shrink
    net_tcp.o(i.net_tcp_send) refers to net_tcp.o(i.tcp_send_data) for tcp_send_data
    net_tcp.o(i.net_tcp_send) refers to net_mem.o(i.net_mem_free) for net_mem_free
    net_tcp.o(i.net_tcp_send) refers to net_config.o(.constdata) for net_tcp_config
    net_tcp.o(i.net_tcp_send) refers to net_sys.o(.bss) for net_sys_control
    net_tcp.o(i.net_tcp_set_option) refers to net_config.o(.constdata) for net_tcp_config
    net_tcp.o(i.net_tcp_socket_init) refers to memseta.o(.text) for __aeabi_memclr4
    net_tcp.o(i.net_tcp_socket_init) refers to net_config.o(.constdata) for net_tcp_config
    net_tcp.o(i.net_tcp_socket_run) refers to net_tcp.o(i.tcp_send_ctrl) for tcp_send_ctrl
    net_tcp.o(i.net_tcp_socket_run) refers to net_tcp.o(i.tcp_que_resend) for tcp_que_resend
    net_tcp.o(i.net_tcp_socket_run) refers to net_mem.o(i.net_mem_avail) for net_mem_avail
    net_tcp.o(i.net_tcp_socket_run) refers to net_tcp.o(i.tcp_que_init) for tcp_que_init
    net_tcp.o(i.net_tcp_socket_run) refers to net_tcp.o(i.tcp_que_free) for tcp_que_free
    net_tcp.o(i.net_tcp_socket_run) refers to net_tcp.o(i.tcp_transit) for tcp_transit
    net_tcp.o(i.net_tcp_socket_run) refers to net_sys.o(.bss) for net_sys_control
    net_tcp.o(i.net_tcp_socket_run) refers to net_config.o(.constdata) for net_tcp_config
    net_tcp.o(i.net_tcp_socket_run) refers to net_tcp.o(.data) for .data
    net_tcp.o(i.tcp_map_socket) refers to net_addr.o(i.net_addr6_comp) for net_addr6_comp
    net_tcp.o(i.tcp_map_socket) refers to net_addr.o(i.net_addr6_copy) for net_addr6_copy
    net_tcp.o(i.tcp_map_socket) refers to net_config.o(.constdata) for net_tcp_config
    net_tcp.o(i.tcp_map_socket) refers to net_sys.o(.bss) for net_sys_control
    net_tcp.o(i.tcp_proc_acknr) refers to net_mem.o(i.net_mem_free) for net_mem_free
    net_tcp.o(i.tcp_proc_acknr) refers to net_sys.o(.bss) for net_sys_control
    net_tcp.o(i.tcp_proc_dupack) refers to net_tcp.o(i.tcp_que_init) for tcp_que_init
    net_tcp.o(i.tcp_que_free) refers to net_mem.o(i.net_mem_free) for net_mem_free
    net_tcp.o(i.tcp_que_resend) refers to net_tcp.o(i.tcp_send_ctrl) for tcp_send_ctrl
    net_tcp.o(i.tcp_que_resend) refers to net_tcp.o(i.tcp_send_data) for tcp_send_data
    net_tcp.o(i.tcp_que_resend) refers to net_config.o(.constdata) for net_tcp_config
    net_tcp.o(i.tcp_send_ctrl) refers to net_mem.o(i.net_mem_alloc) for net_mem_alloc
    net_tcp.o(i.tcp_send_ctrl) refers to net_tcp.o(i.tcp_write) for tcp_write
    net_tcp.o(i.tcp_send_ctrl) refers to net_mem.o(i.net_mem_free) for net_mem_free
    net_tcp.o(i.tcp_send_data) refers to net_tcp.o(i.tcp_write) for tcp_write
    net_tcp.o(i.tcp_send_reset) refers to net_mem.o(i.net_mem_alloc) for net_mem_alloc
    net_tcp.o(i.tcp_send_reset) refers to net_tcp.o(i.tcp_write) for tcp_write
    net_tcp.o(i.tcp_send_reset) refers to net_mem.o(i.net_mem_free) for net_mem_free
    net_tcp.o(i.tcp_transit) refers to net_tcp.o(i.tcp_que_free) for tcp_que_free
    net_tcp.o(i.tcp_transit) refers to net_config.o(.constdata) for net_tcp_config
    net_tcp.o(i.tcp_write) refers to net_ip6.o(i.net_ip6_tx_offload) for net_ip6_tx_offload
    net_tcp.o(i.tcp_write) refers to net_ip4.o(i.net_ip4_tx_offload) for net_ip4_tx_offload
    net_tcp.o(i.tcp_write) refers to net_ip4.o(i.net_ip4_get_local) for net_ip4_get_local
    net_tcp.o(i.tcp_write) refers to net_ip4.o(i.net_ip4_checksum) for net_ip4_checksum
    net_tcp.o(i.tcp_write) refers to net_ip4.o(i.net_ip4_send_frame) for net_ip4_send_frame
    net_tcp.o(i.tcp_write) refers to net_ip6.o(i.net_ip6_checksum) for net_ip6_checksum
    net_tcp.o(i.tcp_write) refers to net_ip6.o(i.net_ip6_send_frame) for net_ip6_send_frame
    net_tcp.o(i.tcp_write) refers to net_config.o(.constdata) for net_tcp_config
    net_tcp.o(.constdata) refers to net_tcp.o(.conststring) for .conststring
    net_dhcp6_client.o(i.check_client_id) refers to net_config.o(.constdata) for net_eth0_config
    net_dhcp6_client.o(i.dhcp6_client_start) refers to net_udp.o(i.net_udp_open) for net_udp_open
    net_dhcp6_client.o(i.dhcp6_client_start) refers to net_addr.o(i.net_addr6_copy) for net_addr6_copy
    net_dhcp6_client.o(i.dhcp6_client_start) refers to net_sys.o(i.net_rand32) for net_rand32
    net_dhcp6_client.o(i.dhcp6_client_start) refers to net_dhcp6_client.o(.bss) for .bss
    net_dhcp6_client.o(i.dhcp6_client_start) refers to net_config.o(.constdata) for net_localm6
    net_dhcp6_client.o(i.dhcp6_client_start) refers to net_addr.o(.constdata) for net_addr_null
    net_dhcp6_client.o(i.dhcp6_client_stop) refers to net_udp.o(i.net_udp_close) for net_udp_close
    net_dhcp6_client.o(i.dhcp6_client_stop) refers to net_addr.o(i.net_addr6_aton) for net_addr6_aton
    net_dhcp6_client.o(i.dhcp6_client_stop) refers to net_dhcp6_client.o(i.netDHCP6_Notify) for netDHCP6_Notify
    net_dhcp6_client.o(i.dhcp6_client_stop) refers to net_dhcp6_client.o(.bss) for .bss
    net_dhcp6_client.o(i.dhcp6_client_stop) refers to net_config.o(.constdata) for net_localm6
    net_dhcp6_client.o(i.dhcp6_client_stop) refers to net_config.o(.constdata) for net_eth0_config
    net_dhcp6_client.o(i.dhcp6_listener) refers to net_dhcp6_client.o(i.check_client_id) for check_client_id
    net_dhcp6_client.o(i.dhcp6_listener) refers to net_dhcp6_client.o(i.select_server) for select_server
    net_dhcp6_client.o(i.dhcp6_listener) refers to net_dhcp6_client.o(i.proc_opt_ia_na) for proc_opt_ia_na
    net_dhcp6_client.o(i.dhcp6_listener) refers to memcmp.o(.text) for memcmp
    net_dhcp6_client.o(i.dhcp6_listener) refers to net_addr.o(i.net_addr6_copy) for net_addr6_copy
    net_dhcp6_client.o(i.dhcp6_listener) refers to net_dhcp6_client.o(i.netDHCP6_Notify) for netDHCP6_Notify
    net_dhcp6_client.o(i.dhcp6_listener) refers to net_dhcp6_client.o(.bss) for .bss
    net_dhcp6_client.o(i.dhcp6_listener) refers to net_config.o(.constdata) for net_localm6
    net_dhcp6_client.o(i.dhcp6_listener) refers to net_addr.o(.constdata) for net_addr_null
    net_dhcp6_client.o(i.dhcp6_send_message) refers to net_udp.o(i.net_udp_get_buf) for net_udp_get_buf
    net_dhcp6_client.o(i.dhcp6_send_message) refers to memmovea.o(.text) for __aeabi_memcpy
    net_dhcp6_client.o(i.dhcp6_send_message) refers to net_addr.o(i.net_addr6_copy) for net_addr6_copy
    net_dhcp6_client.o(i.dhcp6_send_message) refers to net_common.o(i.net_strcpy) for net_strcpy
    net_dhcp6_client.o(i.dhcp6_send_message) refers to net_udp.o(i.net_udp_send) for net_udp_send
    net_dhcp6_client.o(i.dhcp6_send_message) refers to net_config.o(.constdata) for net_eth0_config
    net_dhcp6_client.o(i.dhcp6_send_message) refers to net_dhcp6_client.o(.bss) for .bss
    net_dhcp6_client.o(i.dhcp6_send_message) refers to net_dhcp6_client.o(.constdata) for .constdata
    net_dhcp6_client.o(i.get_tout) refers to net_sys.o(i.net_rand32) for net_rand32
    net_dhcp6_client.o(i.netDHCP6_Disable) refers to net_sys.o(i.net_sys_lock) for net_sys_lock
    net_dhcp6_client.o(i.netDHCP6_Disable) refers to net_dhcp6_client.o(i.dhcp6_client_stop) for dhcp6_client_stop
    net_dhcp6_client.o(i.netDHCP6_Disable) refers to net_sys.o(i.net_sys_unlock) for net_sys_unlock
    net_dhcp6_client.o(i.netDHCP6_Disable) refers to net_dhcp6_client.o(.bss) for .bss
    net_dhcp6_client.o(i.netDHCP6_Enable) refers to net_sys.o(i.net_sys_lock) for net_sys_lock
    net_dhcp6_client.o(i.netDHCP6_Enable) refers to net_dhcp6_client.o(i.dhcp6_client_start) for dhcp6_client_start
    net_dhcp6_client.o(i.netDHCP6_Enable) refers to net_sys.o(i.net_sys_unlock) for net_sys_unlock
    net_dhcp6_client.o(i.netDHCP6_Enable) refers to net_dhcp6_client.o(.bss) for .bss
    net_dhcp6_client.o(i.net_dhcp6_client_init) refers to memseta.o(.text) for __aeabi_memclr4
    net_dhcp6_client.o(i.net_dhcp6_client_init) refers to net_udp.o(i.net_udp_get_socket) for net_udp_get_socket
    net_dhcp6_client.o(i.net_dhcp6_client_init) refers to net_dhcp6_client.o(i.dhcp6_client_start) for dhcp6_client_start
    net_dhcp6_client.o(i.net_dhcp6_client_init) refers to net_dhcp6_client.o(.bss) for .bss
    net_dhcp6_client.o(i.net_dhcp6_client_init) refers to net_dhcp6_client.o(i.dhcp6_listener) for dhcp6_listener
    net_dhcp6_client.o(i.net_dhcp6_client_init) refers to net_config.o(.constdata) for net_sys_config
    net_dhcp6_client.o(i.net_dhcp6_client_init) refers to net_config.o(.constdata) for net_eth0_config
    net_dhcp6_client.o(i.net_dhcp6_client_run) refers to net_sys.o(i.net_rand32) for net_rand32
    net_dhcp6_client.o(i.net_dhcp6_client_run) refers to net_dhcp6_client.o(i.dhcp6_send_message) for dhcp6_send_message
    net_dhcp6_client.o(i.net_dhcp6_client_run) refers to net_dhcp6_client.o(i.get_tout) for get_tout
    net_dhcp6_client.o(i.net_dhcp6_client_run) refers to net_addr.o(i.net_addr6_copy) for net_addr6_copy
    net_dhcp6_client.o(i.net_dhcp6_client_run) refers to net_dhcp6_client.o(i.netDHCP6_Notify) for netDHCP6_Notify
    net_dhcp6_client.o(i.net_dhcp6_client_run) refers to net_dhcp6_client.o(.bss) for .bss
    net_dhcp6_client.o(i.net_dhcp6_client_run) refers to net_sys.o(.bss) for net_sys_control
    net_dhcp6_client.o(i.net_dhcp6_client_run) refers to net_eth.o(.bss) for net_eth_control
    net_dhcp6_client.o(i.net_dhcp6_client_run) refers to net_config.o(.constdata) for net_localm6
    net_dhcp6_client.o(i.net_dhcp6_client_run) refers to net_addr.o(.constdata) for net_addr_null
    net_dhcp6_client.o(i.proc_opt_ia_na) refers to net_addr.o(i.net_addr6_comp) for net_addr6_comp
    net_dhcp6_client.o(i.proc_opt_ia_na) refers to net_addr.o(i.net_addr6_copy) for net_addr6_copy
    net_dhcp6_client.o(i.proc_opt_ia_na) refers to net_dhcp6_client.o(.bss) for .bss
    net_dhcp6_client.o(i.select_server) refers to memmovea.o(.text) for __aeabi_memcpy
    net_dhcp6_client.o(i.select_server) refers to net_dhcp6_client.o(.bss) for .bss
    net_nbns_client.o(i.nbns_listener) refers to net_mem.o(i.net_mem_alloc) for net_mem_alloc
    net_nbns_client.o(i.nbns_listener) refers to net_common.o(i.net_strtoupper) for net_strtoupper
    net_nbns_client.o(i.nbns_listener) refers to memcmp.o(.text) for memcmp
    net_nbns_client.o(i.nbns_listener) refers to net_udp.o(i.net_udp_get_buf) for net_udp_get_buf
    net_nbns_client.o(i.nbns_listener) refers to memmovea.o(.text) for __aeabi_memcpy
    net_nbns_client.o(i.nbns_listener) refers to net_udp.o(i.net_udp_send) for net_udp_send
    net_nbns_client.o(i.nbns_listener) refers to net_mem.o(i.net_mem_free) for net_mem_free
    net_nbns_client.o(i.nbns_listener) refers to net_nbns_client.o(.data) for .data
    net_nbns_client.o(i.nbns_listener) refers to net_sys.o(.bss) for net_sys_control
    net_nbns_client.o(i.nbns_listener) refers to net_nbns_client.o(.constdata) for .constdata
    net_nbns_client.o(i.nbns_listener) refers to net_config.o(.constdata) for net_localm
    net_nbns_client.o(i.net_nbns_client_init) refers to net_udp.o(i.net_udp_get_socket) for net_udp_get_socket
    net_nbns_client.o(i.net_nbns_client_init) refers to net_udp.o(i.net_udp_open) for net_udp_open
    net_nbns_client.o(i.net_nbns_client_init) refers to net_nbns_client.o(i.nbns_listener) for nbns_listener
    net_nbns_client.o(i.net_nbns_client_init) refers to net_nbns_client.o(.data) for .data
    net_telnet_server.o(i.get_hist) refers to net_common.o(i.net_strcpy) for net_strcpy
    net_telnet_server.o(i.netTELNETs_GetClient) refers to net_tcp.o(i.net_tcp_get_peer) for net_tcp_get_peer
    net_telnet_server.o(i.netTELNETs_GetClient) refers to net_config.o(.constdata) for net_telnet_config
    net_telnet_server.o(i.netTELNETs_GetClient) refers to net_telnet_server.o(.data) for .data
    net_telnet_server.o(i.netTELNETs_GetPassword) refers to net_config.o(.constdata) for net_telnet_config
    net_telnet_server.o(i.netTELNETs_GetPort) refers to net_telnet_server.o(.data) for .data
    net_telnet_server.o(i.netTELNETs_GetSession) refers to net_telnet_server.o(.data) for .data
    net_telnet_server.o(i.netTELNETs_GetUserId) refers to net_config.o(.constdata) for net_telnet_config
    net_telnet_server.o(i.netTELNETs_GetUserId) refers to net_telnet_server.o(.data) for .data
    net_telnet_server.o(i.netTELNETs_GetUsername) refers to net_config.o(.constdata) for net_telnet_config
    net_telnet_server.o(i.netTELNETs_LoginActive) refers to net_telnet_server.o(.data) for .data
    net_telnet_server.o(i.netTELNETs_LoginOnOff) refers to net_config.o(.constdata) for net_telnet_config
    net_telnet_server.o(i.netTELNETs_LoginOnOff) refers to net_telnet_server.o(.data) for .data
    net_telnet_server.o(i.netTELNETs_RepeatCommand) refers to net_config.o(.constdata) for net_telnet_config
    net_telnet_server.o(i.netTELNETs_RepeatCommand) refers to net_telnet_server.o(.data) for .data
    net_telnet_server.o(i.netTELNETs_RequestMessage) refers to net_sys.o(i.net_sys_lock) for net_sys_lock
    net_telnet_server.o(i.netTELNETs_RequestMessage) refers to net_sys.o(i.net_sys_unlock) for net_sys_unlock
    net_telnet_server.o(i.netTELNETs_RequestMessage) refers to net_config.o(.constdata) for net_telnet_config
    net_telnet_server.o(i.netTELNETs_Running) refers to net_telnet_server.o(.data) for .data
    net_telnet_server.o(i.netTELNETs_SetPassword) refers to net_sys.o(i.net_sys_lock) for net_sys_lock
    net_telnet_server.o(i.netTELNETs_SetPassword) refers to strlen.o(.text) for strlen
    net_telnet_server.o(i.netTELNETs_SetPassword) refers to net_common.o(i.net_strcpy) for net_strcpy
    net_telnet_server.o(i.netTELNETs_SetPassword) refers to net_sys.o(i.net_sys_unlock) for net_sys_unlock
    net_telnet_server.o(i.netTELNETs_SetPassword) refers to net_config.o(.constdata) for net_telnet_config
    net_telnet_server.o(i.netTELNETs_SetPort) refers to net_telnet_server.o(.data) for .data
    net_telnet_server.o(i.netTELNETs_SetUsername) refers to net_sys.o(i.net_sys_lock) for net_sys_lock
    net_telnet_server.o(i.netTELNETs_SetUsername) refers to strlen.o(.text) for strlen
    net_telnet_server.o(i.netTELNETs_SetUsername) refers to net_common.o(i.net_strcpy) for net_strcpy
    net_telnet_server.o(i.netTELNETs_SetUsername) refers to net_sys.o(i.net_sys_unlock) for net_sys_unlock
    net_telnet_server.o(i.netTELNETs_SetUsername) refers to net_config.o(.constdata) for net_telnet_config
    net_telnet_server.o(i.netTELNETs_Start) refers to net_sys.o(i.net_sys_lock) for net_sys_lock
    net_telnet_server.o(i.netTELNETs_Start) refers to net_telnet_server.o(i.telnet_server_start) for telnet_server_start
    net_telnet_server.o(i.netTELNETs_Start) refers to net_sys.o(i.net_sys_unlock) for net_sys_unlock
    net_telnet_server.o(i.netTELNETs_Start) refers to net_telnet_server.o(.data) for .data
    net_telnet_server.o(i.netTELNETs_Stop) refers to net_sys.o(i.net_sys_lock) for net_sys_lock
    net_telnet_server.o(i.netTELNETs_Stop) refers to net_tcp.o(i.net_tcp_abort) for net_tcp_abort
    net_telnet_server.o(i.netTELNETs_Stop) refers to net_telnet_server.o(i.telnet_kill_session) for telnet_kill_session
    net_telnet_server.o(i.netTELNETs_Stop) refers to net_sys.o(i.net_sys_unlock) for net_sys_unlock
    net_telnet_server.o(i.netTELNETs_Stop) refers to net_telnet_server.o(.data) for .data
    net_telnet_server.o(i.netTELNETs_Stop) refers to net_config.o(.constdata) for net_telnet_config
    net_telnet_server.o(i.net_telnet_server_init) refers to net_tcp.o(i.net_tcp_get_socket) for net_tcp_get_socket
    net_telnet_server.o(i.net_telnet_server_init) refers to net_tcp.o(i.net_tcp_set_option) for net_tcp_set_option
    net_telnet_server.o(i.net_telnet_server_init) refers to net_common.o(i.net_strcpy) for net_strcpy
    net_telnet_server.o(i.net_telnet_server_init) refers to net_telnet_server.o(i.telnet_server_start) for telnet_server_start
    net_telnet_server.o(i.net_telnet_server_init) refers to net_config.o(.constdata) for net_telnet_config
    net_telnet_server.o(i.net_telnet_server_init) refers to net_telnet_server.o(i.telnet_listener) for telnet_listener
    net_telnet_server.o(i.net_telnet_server_init) refers to net_telnet_server.o(.data) for .data
    net_telnet_server.o(i.net_telnet_server_init) refers to net_config.o(.constdata) for net_sys_config
    net_telnet_server.o(i.net_telnet_server_run) refers to net_telnet_server.o(i.telnet_server_run) for telnet_server_run
    net_telnet_server.o(i.net_telnet_server_run) refers to net_telnet_server.o(.data) for .data
    net_telnet_server.o(i.telnet_kill_session) refers to net_config.o(.constdata) for net_telnet_config
    net_telnet_server.o(i.telnet_listener) refers to net_telnet_server.o(i.netTELNETs_AcceptClient) for netTELNETs_AcceptClient
    net_telnet_server.o(i.telnet_listener) refers to net_telnet_server.o(i.telnet_kill_session) for telnet_kill_session
    net_telnet_server.o(i.telnet_listener) refers to net_telnet_server.o(i.telnet_parse_cmd) for telnet_parse_cmd
    net_telnet_server.o(i.telnet_listener) refers to net_config.o(.constdata) for net_telnet_config
    net_telnet_server.o(i.telnet_listener) refers to net_telnet_server.o(.data) for .data
    net_telnet_server.o(i.telnet_server_run) refers to net_tcp.o(i.net_tcp_get_state) for net_tcp_get_state
    net_telnet_server.o(i.telnet_server_run) refers to net_tcp.o(i.net_tcp_listen) for net_tcp_listen
    net_telnet_server.o(i.telnet_server_run) refers to net_tcp.o(i.net_tcp_close) for net_tcp_close
    net_telnet_server.o(i.telnet_server_run) refers to net_telnet_server.o(i.telnet_kill_session) for telnet_kill_session
    net_telnet_server.o(i.telnet_server_run) refers to net_tcp.o(i.net_tcp_get_mss) for net_tcp_get_mss
    net_telnet_server.o(i.telnet_server_run) refers to net_tcp.o(i.net_tcp_get_buf) for net_tcp_get_buf
    net_telnet_server.o(i.telnet_server_run) refers to telnet_server_uif.o(.text) for netTELNETs_ProcessMessage
    net_telnet_server.o(i.telnet_server_run) refers to net_telnet_server.o(i.proc_data) for proc_data
    net_telnet_server.o(i.telnet_server_run) refers to strcmp.o(.text) for strcmp
    net_telnet_server.o(i.telnet_server_run) refers to memmovea.o(.text) for __aeabi_memmove
    net_telnet_server.o(i.telnet_server_run) refers to net_common.o(i.net_strcpy) for net_strcpy
    net_telnet_server.o(i.telnet_server_run) refers to net_tcp.o(i.net_tcp_set_option) for net_tcp_set_option
    net_telnet_server.o(i.telnet_server_run) refers to net_telnet_server.o(i.get_hist) for get_hist
    net_telnet_server.o(i.telnet_server_run) refers to memseta.o(.text) for __aeabi_memset
    net_telnet_server.o(i.telnet_server_run) refers to net_tcp.o(i.net_tcp_send) for net_tcp_send
    net_telnet_server.o(i.telnet_server_run) refers to net_telnet_server.o(i.netTELNETs_CheckPassword) for netTELNETs_CheckPassword
    net_telnet_server.o(i.telnet_server_run) refers to net_telnet_server.o(i.netTELNETs_CheckUsername) for netTELNETs_CheckUsername
    net_telnet_server.o(i.telnet_server_run) refers to net_config.o(.constdata) for net_telnet_config
    net_telnet_server.o(i.telnet_server_run) refers to net_telnet_server.o(.data) for .data
    net_telnet_server.o(i.telnet_server_run) refers to net_sys.o(.bss) for net_sys_control
    net_telnet_server.o(i.telnet_server_start) refers to net_tcp.o(i.net_tcp_listen) for net_tcp_listen
    net_telnet_server.o(i.telnet_server_start) refers to net_config.o(.constdata) for net_telnet_config
    net_telnet_server.o(i.telnet_server_start) refers to net_telnet_server.o(.data) for .data
    net_ping.o(i.netPing_Echo) refers to net_sys.o(i.net_sys_lock) for net_sys_lock
    net_ping.o(i.netPing_Echo) refers to net_addr.o(i.net_addr_is_unspec) for net_addr_is_unspec
    net_ping.o(i.netPing_Echo) refers to net_addr.o(i.net_addr6_copy) for net_addr6_copy
    net_ping.o(i.netPing_Echo) refers to net_addr.o(i.net_addr_get_local) for net_addr_get_local
    net_ping.o(i.netPing_Echo) refers to net_sys.o(i.net_rand32) for net_rand32
    net_ping.o(i.netPing_Echo) refers to net_ping.o(i.ping_send_req) for ping_send_req
    net_ping.o(i.netPing_Echo) refers to net_sys.o(i.net_sys_unlock) for net_sys_unlock
    net_ping.o(i.netPing_Echo) refers to net_ping.o(.bss) for .bss
    net_ping.o(i.net_ping_client_init) refers to net_ping.o(.bss) for .bss
    net_ping.o(i.net_ping_client_run) refers to net_ping.o(i.ping_send_req) for ping_send_req
    net_ping.o(i.net_ping_client_run) refers to net_ping.o(.bss) for .bss
    net_ping.o(i.net_ping_client_run) refers to net_sys.o(.bss) for net_sys_control
    net_ping.o(i.ping_send_req) refers to net_icmp6.o(i.net_icmp6_send_echo) for net_icmp6_send_echo
    net_ping.o(i.ping_send_req) refers to net_icmp.o(i.net_icmp_send_echo) for net_icmp_send_echo
    net_ping.o(i.ping_send_req) refers to net_ping.o(.bss) for .bss
    net_sys.o(i.netCore_Thread) refers to net_config.o(.text) for netos_flag_wait
    net_sys.o(i.netCore_Thread) refers to net_sys.o(i.sys_proc_tick) for sys_proc_tick
    net_sys.o(i.netCore_Thread) refers to net_sys.o(i.net_sys_lock) for net_sys_lock
    net_sys.o(i.netCore_Thread) refers to net_sys.o(i.net_sys_unlock) for net_sys_unlock
    net_sys.o(i.netCore_Thread) refers to net_sys.o(.data) for .data
    net_sys.o(i.netCore_Thread) refers to net_config.o(.constdata) for net_sys_func
    net_sys.o(i.netCore_Thread) refers to net_sys.o(.bss) for .bss
    net_sys.o(i.netIF_GetOption) refers to net_sys.o(i.net_sys_lock) for net_sys_lock
    net_sys.o(i.netIF_GetOption) refers to net_eth.o(i.net_eth_get_option) for net_eth_get_option
    net_sys.o(i.netIF_GetOption) refers to net_config.o(.text) for net_ppp_get_option
    net_sys.o(i.netIF_GetOption) refers to net_sys.o(i.net_sys_unlock) for net_sys_unlock
    net_sys.o(i.netIF_SetDefault) refers to net_sys.o(i.net_sys_lock) for net_sys_lock
    net_sys.o(i.netIF_SetDefault) refers to net_ip4.o(i.net_ip4_set_netif) for net_ip4_set_netif
    net_sys.o(i.netIF_SetDefault) refers to net_sys.o(i.net_sys_unlock) for net_sys_unlock
    net_sys.o(i.netIF_SetDefault) refers to net_ip6.o(i.net_ip6_set_netif) for net_ip6_set_netif
    net_sys.o(i.netIF_SetOption) refers to net_sys.o(i.net_sys_lock) for net_sys_lock
    net_sys.o(i.netIF_SetOption) refers to net_eth.o(i.net_eth_set_option) for net_eth_set_option
    net_sys.o(i.netIF_SetOption) refers to net_config.o(.text) for net_ppp_set_option
    net_sys.o(i.netIF_SetOption) refers to net_sys.o(i.net_sys_unlock) for net_sys_unlock
    net_sys.o(i.netInitialize) refers to net_config.o(.text) for netos_mutex_create
    net_sys.o(i.netInitialize) refers to net_sys.o(i.net_sys_lock) for net_sys_lock
    net_sys.o(i.netInitialize) refers to net_sys.o(.emb_text) for __asm___9_net_sys_c_71b12f21__sys_get_ver
    net_sys.o(i.netInitialize) refers to net_mem.o(i.net_mem_init) for net_mem_init
    net_sys.o(i.netInitialize) refers to memseta.o(.text) for __aeabi_memclr4
    net_sys.o(i.netInitialize) refers to net_sys.o(i.net_sys_unlock) for net_sys_unlock
    net_sys.o(i.netInitialize) refers to net_sys.o(.data) for .data
    net_sys.o(i.netInitialize) refers to net_sys.o(.bss) for .bss
    net_sys.o(i.netInitialize) refers to net_config.o(.constdata) for net_sys_config
    net_sys.o(i.netInitialize) refers to net_config.o(.constdata) for net_sys_func
    net_sys.o(i.netSYS_GetHostName) refers to net_sys.o(.bss) for .bss
    net_sys.o(i.netSYS_SetHostName) refers to net_sys.o(i.net_sys_lock) for net_sys_lock
    net_sys.o(i.netSYS_SetHostName) refers to strlen.o(.text) for strlen
    net_sys.o(i.netSYS_SetHostName) refers to net_common.o(i.net_strcpy) for net_strcpy
    net_sys.o(i.netSYS_SetHostName) refers to net_sys.o(i.net_sys_unlock) for net_sys_unlock
    net_sys.o(i.netSYS_SetHostName) refers to net_sys.o(.bss) for .bss
    net_sys.o(i.net_path) refers to net_common.o(i.net_strcpy) for net_strcpy
    net_sys.o(i.net_path) refers to net_config.o(.constdata) for net_sys_config
    net_sys.o(i.net_rand32) refers to net_sys.o(.bss) for .bss
    net_sys.o(i.net_sys_lock) refers to net_config.o(.text) for netos_lock
    net_sys.o(i.net_sys_lock) refers to net_sys.o(.data) for .data
    net_sys.o(i.net_sys_tick) refers to net_sys.o(i.net_sys_wakeup) for net_sys_wakeup
    net_sys.o(i.net_sys_tick) refers to net_sys.o(.bss) for .bss
    net_sys.o(i.net_sys_unlock) refers to net_config.o(.text) for netos_unlock
    net_sys.o(i.net_sys_unlock) refers to net_sys.o(.data) for .data
    net_sys.o(i.net_sys_wakeup) refers to net_config.o(.text) for netos_flag_set
    net_sys.o(i.net_sys_wakeup) refers to net_sys.o(.bss) for .bss
    net_sys.o(i.net_sys_wakeup) refers to net_sys.o(.data) for .data
    net_sys.o(i.sys_proc_tick) refers to net_sys.o(i.net_rand32) for net_rand32
    net_sys.o(i.sys_proc_tick) refers to net_sys.o(.bss) for .bss
    net_addr.o(i.ip4_ntoa) refers to printf8.o(i.__0sprintf$8) for __2sprintf
    net_addr.o(i.ip6_ntoa) refers to printf8.o(i.__0sprintf$8) for __2sprintf
    net_addr.o(i.mac_ntoa) refers to printf8.o(i.__0sprintf$8) for __2sprintf
    net_addr.o(i.netIP_aton) refers to net_addr.o(i.net_addr4_aton) for net_addr4_aton
    net_addr.o(i.netIP_aton) refers to net_addr.o(i.net_addr6_aton) for net_addr6_aton
    net_addr.o(i.netIP_ntoa) refers to net_addr.o(i.ip4_ntoa) for ip4_ntoa
    net_addr.o(i.netIP_ntoa) refers to net_addr.o(i.ip6_ntoa) for ip6_ntoa
    net_addr.o(i.netMAC_aton) refers to _scanf_int.o(.text) for _scanf_int
    net_addr.o(i.netMAC_aton) refers to __0sscanf.o(.text) for __0sscanf
    net_addr.o(i.netMAC_ntoa) refers to net_addr.o(i.mac_ntoa) for mac_ntoa
    net_addr.o(i.net_addr4_aton) refers to _scanf_int.o(.text) for _scanf_int
    net_addr.o(i.net_addr4_aton) refers to __0sscanf.o(.text) for __0sscanf
    net_addr.o(i.net_addr4_ntoa) refers to net_addr.o(i.ip4_ntoa) for ip4_ntoa
    net_addr.o(i.net_addr4_ntoa) refers to net_addr.o(.bss) for .bss
    net_addr.o(i.net_addr6_aton) refers to _scanf_int.o(.text) for _scanf_int
    net_addr.o(i.net_addr6_aton) refers to __0sscanf.o(.text) for __0sscanf
    net_addr.o(i.net_addr6_get_solicited) refers to net_addr.o(.bss) for .bss
    net_addr.o(i.net_addr6_ntoa) refers to net_addr.o(i.ip6_ntoa) for ip6_ntoa
    net_addr.o(i.net_addr6_ntoa) refers to net_addr.o(.bss) for .bss
    net_addr.o(i.net_addr_comp) refers to net_addr.o(i.net_addr6_comp) for net_addr6_comp
    net_addr.o(i.net_addr_copy) refers to net_addr.o(i.net_addr6_copy) for net_addr6_copy
    net_addr.o(i.net_addr_get_lhost) refers to net_addr.o(i.net_addr6_copy) for net_addr6_copy
    net_addr.o(i.net_addr_get_lhost) refers to net_ip6.o(.constdata) for net_addr6_loopback
    net_addr.o(i.net_addr_get_lhost) refers to net_ip4.o(.constdata) for net_addr4_loopback
    net_addr.o(i.net_addr_get_local) refers to net_ip6.o(i.net_ip6_get_local) for net_ip6_get_local
    net_addr.o(i.net_addr_get_local) refers to net_ip4.o(i.net_ip4_get_local) for net_ip4_get_local
    net_addr.o(i.net_addr_is_unspec) refers to net_addr.o(i.net_addr6_is_unspec) for net_addr6_is_unspec
    net_addr.o(i.net_addr_ntoa) refers to net_addr.o(i.net_addr6_ntoa) for net_addr6_ntoa
    net_addr.o(i.net_addr_ntoa) refers to net_addr.o(i.net_addr4_ntoa) for net_addr4_ntoa
    net_addr.o(i.net_mac_ntoa) refers to net_addr.o(i.mac_ntoa) for mac_ntoa
    net_addr.o(i.net_mac_ntoa) refers to net_addr.o(.bss) for .bss
    rt_task.o(i.rt_block) refers to rt_list.o(i.rt_put_dly) for rt_put_dly
    rt_task.o(i.rt_block) refers to rt_list.o(i.rt_get_first) for rt_get_first
    rt_task.o(i.rt_block) refers to rt_task.o(i.rt_switch_req) for rt_switch_req
    rt_task.o(i.rt_block) refers to rt_task.o(.data) for .data
    rt_task.o(i.rt_block) refers to rt_list.o(.bss) for os_rdy
    rt_task.o(i.rt_dispatch) refers to rt_list.o(i.rt_put_rdy_first) for rt_put_rdy_first
    rt_task.o(i.rt_dispatch) refers to rt_task.o(i.rt_switch_req) for rt_switch_req
    rt_task.o(i.rt_dispatch) refers to rt_list.o(i.rt_get_first) for rt_get_first
    rt_task.o(i.rt_dispatch) refers to rt_list.o(i.rt_put_prio) for rt_put_prio
    rt_task.o(i.rt_dispatch) refers to rt_task.o(.data) for .data
    rt_task.o(i.rt_dispatch) refers to rt_list.o(.bss) for os_rdy
    rt_task.o(i.rt_init_context) refers to rt_membox.o(i.rt_alloc_box) for rt_alloc_box
    rt_task.o(i.rt_init_context) refers to hal_cm.o(i.rt_init_stack) for rt_init_stack
    rt_task.o(i.rt_init_context) refers to rtx_conf_cm.o(.bss) for mp_stk
    rt_task.o(i.rt_switch_req) refers to hal_cm.o(i.dbg_task_switch) for dbg_task_switch
    rt_task.o(i.rt_switch_req) refers to rt_task.o(.data) for .data
    rt_task.o(i.rt_switch_req) refers to hal_cm.o(.data) for dbg_msg
    rt_task.o(i.rt_sys_init) refers to hal_cm.o(i.dbg_init) for dbg_init
    rt_task.o(i.rt_sys_init) refers to rt_membox.o(i._init_box) for _init_box
    rt_task.o(i.rt_sys_init) refers to rt_task.o(i.rt_init_context) for rt_init_context
    rt_task.o(i.rt_sys_init) refers to rt_robin.o(i.rt_init_robin) for rt_init_robin
    rt_task.o(i.rt_sys_init) refers to rtx_conf_cm.o(.bss) for os_active_TCB
    rt_task.o(i.rt_sys_init) refers to rtx_conf_cm.o(.constdata) for os_maxtaskrun
    rt_task.o(i.rt_sys_init) refers to rtx_conf_cm.o(.constdata) for mp_tcb_size
    rt_task.o(i.rt_sys_init) refers to rtx_conf_cm.o(.bss) for mp_tcb
    rt_task.o(i.rt_sys_init) refers to rtx_conf_cm.o(.constdata) for os_stackinfo
    rt_task.o(i.rt_sys_init) refers to rtx_conf_cm.o(.constdata) for mp_stk_size
    rt_task.o(i.rt_sys_init) refers to rtx_conf_cm.o(.bss) for mp_stk
    rt_task.o(i.rt_sys_init) refers to rtx_conf_cm.o(.constdata) for mp_tmr_size
    rt_task.o(i.rt_sys_init) refers to rtx_conf_cm.o(.data) for m_tmr
    rt_task.o(i.rt_sys_init) refers to rt_task.o(.bss) for .bss
    rt_task.o(i.rt_sys_init) refers to rtx_conf_cm.o(.text) for os_idle_demon
    rt_task.o(i.rt_sys_init) refers to rt_list.o(.bss) for os_rdy
    rt_task.o(i.rt_sys_init) refers to rt_task.o(.data) for .data
    rt_task.o(i.rt_sys_init) refers to rtx_conf_cm.o(.bss) for os_fifo
    rt_task.o(i.rt_sys_init) refers to rtx_conf_cm.o(.constdata) for os_fifo_size
    rt_task.o(i.rt_sys_start) refers to rt_system.o(i.os_tick_init) for os_tick_init
    rt_task.o(i.rt_sys_start) refers to rt_system.o(.data) for os_tick_irqn
    rt_task.o(i.rt_tsk_create) refers to rt_membox.o(i.rt_alloc_box) for rt_alloc_box
    rt_task.o(i.rt_tsk_create) refers to rt_task.o(i.rt_init_context) for rt_init_context
    rt_task.o(i.rt_tsk_create) refers to hal_cm.o(i.dbg_task_notify) for dbg_task_notify
    rt_task.o(i.rt_tsk_create) refers to rt_task.o(i.rt_dispatch) for rt_dispatch
    rt_task.o(i.rt_tsk_create) refers to rtx_conf_cm.o(.bss) for mp_tcb
    rt_task.o(i.rt_tsk_create) refers to rtx_conf_cm.o(.bss) for os_active_TCB
    rt_task.o(i.rt_tsk_create) refers to rtx_conf_cm.o(.constdata) for os_maxtaskrun
    rt_task.o(i.rt_tsk_create) refers to hal_cm.o(.data) for dbg_msg
    rt_task.o(i.rt_tsk_delete) refers to hal_cm3.o(.emb_text) for rt_get_PSP
    rt_task.o(i.rt_tsk_delete) refers to rt_system.o(i.rt_stk_check) for rt_stk_check
    rt_task.o(i.rt_tsk_delete) refers to rt_list.o(i.rt_get_first) for rt_get_first
    rt_task.o(i.rt_tsk_delete) refers to hal_cm.o(i.rt_ret_val) for rt_ret_val
    rt_task.o(i.rt_tsk_delete) refers to rt_list.o(i.rt_rmv_dly) for rt_rmv_dly
    rt_task.o(i.rt_tsk_delete) refers to rt_list.o(i.rt_put_prio) for rt_put_prio
    rt_task.o(i.rt_tsk_delete) refers to rt_membox.o(i.rt_free_box) for rt_free_box
    rt_task.o(i.rt_tsk_delete) refers to hal_cm.o(i.dbg_task_notify) for dbg_task_notify
    rt_task.o(i.rt_tsk_delete) refers to rt_list.o(i.rt_rmv_list) for rt_rmv_list
    rt_task.o(i.rt_tsk_delete) refers to rt_task.o(i.rt_dispatch) for rt_dispatch
    rt_task.o(i.rt_tsk_delete) refers to hal_cm.o(.data) for dbg_msg
    rt_task.o(i.rt_tsk_delete) refers to rtx_conf_cm.o(.bss) for os_active_TCB
    rt_task.o(i.rt_tsk_delete) refers to rt_task.o(.data) for .data
    rt_task.o(i.rt_tsk_delete) refers to rt_list.o(.bss) for os_rdy
    rt_task.o(i.rt_tsk_delete) refers to rtx_conf_cm.o(.bss) for mp_stk
    rt_task.o(i.rt_tsk_delete) refers to rtx_conf_cm.o(.bss) for mp_tcb
    rt_task.o(i.rt_tsk_delete) refers to rtx_conf_cm.o(.constdata) for os_maxtaskrun
    rt_task.o(i.rt_tsk_pass) refers to rt_list.o(i.rt_get_same_rdy_prio) for rt_get_same_rdy_prio
    rt_task.o(i.rt_tsk_pass) refers to rt_list.o(i.rt_put_prio) for rt_put_prio
    rt_task.o(i.rt_tsk_pass) refers to rt_task.o(i.rt_switch_req) for rt_switch_req
    rt_task.o(i.rt_tsk_pass) refers to rt_task.o(.data) for .data
    rt_task.o(i.rt_tsk_pass) refers to rt_list.o(.bss) for os_rdy
    rt_task.o(i.rt_tsk_prio) refers to rt_list.o(i.rt_put_prio) for rt_put_prio
    rt_task.o(i.rt_tsk_prio) refers to rt_list.o(i.rt_resort_prio) for rt_resort_prio
    rt_task.o(i.rt_tsk_prio) refers to rt_list.o(i.rt_get_first) for rt_get_first
    rt_task.o(i.rt_tsk_prio) refers to rt_task.o(i.rt_dispatch) for rt_dispatch
    rt_task.o(i.rt_tsk_prio) refers to rt_task.o(.data) for .data
    rt_task.o(i.rt_tsk_prio) refers to rtx_conf_cm.o(.constdata) for os_maxtaskrun
    rt_task.o(i.rt_tsk_prio) refers to rtx_conf_cm.o(.bss) for os_active_TCB
    rt_task.o(i.rt_tsk_prio) refers to rt_list.o(.bss) for os_rdy
    rt_task.o(i.rt_tsk_self) refers to rt_task.o(.data) for .data
    rt_system.o(i.os_tick_init) refers to rtx_conf_cm.o(.constdata) for os_trv
    rt_system.o(i.os_tick_val) refers to rtx_conf_cm.o(.constdata) for os_trv
    rt_system.o(i.rt_pop_req) refers to rt_list.o(i.rt_put_rdy_first) for rt_put_rdy_first
    rt_system.o(i.rt_pop_req) refers to rt_semaphore.o(i.rt_sem_psh) for rt_sem_psh
    rt_system.o(i.rt_pop_req) refers to rt_list.o(i.rt_get_first) for rt_get_first
    rt_system.o(i.rt_pop_req) refers to rt_task.o(i.rt_switch_req) for rt_switch_req
    rt_system.o(i.rt_pop_req) refers to rt_event.o(i.rt_evt_psh) for rt_evt_psh
    rt_system.o(i.rt_pop_req) refers to rt_mailbox.o(i.rt_mbx_psh) for rt_mbx_psh
    rt_system.o(i.rt_pop_req) refers to rt_task.o(.data) for os_tsk
    rt_system.o(i.rt_pop_req) refers to rtx_conf_cm.o(.bss) for os_fifo
    rt_system.o(i.rt_pop_req) refers to rt_list.o(.bss) for os_rdy
    rt_system.o(i.rt_psh_req) refers to rt_system.o(.data) for .data
    rt_system.o(i.rt_resume) refers to rt_list.o(i.rt_put_rdy_first) for rt_put_rdy_first
    rt_system.o(i.rt_resume) refers to rt_list.o(i.rt_dec_dly) for rt_dec_dly
    rt_system.o(i.rt_resume) refers to rt_cmsis.o(i.sysUserTimerUpdate) for sysUserTimerUpdate
    rt_system.o(i.rt_resume) refers to rt_list.o(i.rt_get_first) for rt_get_first
    rt_system.o(i.rt_resume) refers to rt_task.o(i.rt_switch_req) for rt_switch_req
    rt_system.o(i.rt_resume) refers to rt_system.o(i.rt_tsk_unlock) for rt_tsk_unlock
    rt_system.o(i.rt_resume) refers to rt_task.o(.data) for os_tsk
    rt_system.o(i.rt_resume) refers to rt_robin.o(.data) for os_robin
    rt_system.o(i.rt_resume) refers to rt_list.o(.bss) for os_dly
    rt_system.o(i.rt_resume) refers to rt_time.o(.data) for os_time
    rt_system.o(i.rt_stk_check) refers to rtx_conf_cm.o(.text) for os_error
    rt_system.o(i.rt_stk_check) refers to rt_task.o(.data) for os_tsk
    rt_system.o(i.rt_suspend) refers to rt_system.o(i.rt_tsk_lock) for rt_tsk_lock
    rt_system.o(i.rt_suspend) refers to rt_cmsis.o(i.sysUserTimerWakeupTime) for sysUserTimerWakeupTime
    rt_system.o(i.rt_suspend) refers to rt_list.o(.bss) for os_dly
    rt_system.o(i.rt_systick) refers to rt_list.o(i.rt_put_rdy_first) for rt_put_rdy_first
    rt_system.o(i.rt_systick) refers to rt_robin.o(i.rt_chk_robin) for rt_chk_robin
    rt_system.o(i.rt_systick) refers to rt_list.o(i.rt_dec_dly) for rt_dec_dly
    rt_system.o(i.rt_systick) refers to rt_cmsis.o(i.sysTimerTick) for sysTimerTick
    rt_system.o(i.rt_systick) refers to rt_list.o(i.rt_get_first) for rt_get_first
    rt_system.o(i.rt_systick) refers to rt_task.o(i.rt_switch_req) for rt_switch_req
    rt_system.o(i.rt_systick) refers to rt_task.o(.data) for os_tsk
    rt_system.o(i.rt_systick) refers to rt_time.o(.data) for os_time
    rt_system.o(i.rt_systick) refers to rt_list.o(.bss) for os_rdy
    rt_system.o(i.rt_tsk_lock) refers to rt_system.o(.data) for .data
    rt_system.o(i.rt_tsk_unlock) refers to rt_system.o(.data) for .data
    rt_event.o(i.isr_evt_set) refers to rt_list.o(i.rt_psq_enq) for rt_psq_enq
    rt_event.o(i.isr_evt_set) refers to rt_system.o(i.rt_psh_req) for rt_psh_req
    rt_event.o(i.isr_evt_set) refers to rtx_conf_cm.o(.bss) for os_active_TCB
    rt_event.o(i.rt_evt_clr) refers to rtx_conf_cm.o(.bss) for os_active_TCB
    rt_event.o(i.rt_evt_get) refers to rt_task.o(.data) for os_tsk
    rt_event.o(i.rt_evt_psh) refers to rt_list.o(i.rt_rmv_dly) for rt_rmv_dly
    rt_event.o(i.rt_evt_psh) refers to hal_cm.o(i.rt_ret_val2) for rt_ret_val2
    rt_event.o(i.rt_evt_psh) refers to rt_list.o(i.rt_put_prio) for rt_put_prio
    rt_event.o(i.rt_evt_psh) refers to rt_list.o(.bss) for os_rdy
    rt_event.o(i.rt_evt_set) refers to rt_list.o(i.rt_rmv_dly) for rt_rmv_dly
    rt_event.o(i.rt_evt_set) refers to hal_cm.o(i.rt_ret_val2) for rt_ret_val2
    rt_event.o(i.rt_evt_set) refers to rt_task.o(i.rt_dispatch) for rt_dispatch
    rt_event.o(i.rt_evt_set) refers to rtx_conf_cm.o(.bss) for os_active_TCB
    rt_event.o(i.rt_evt_wait) refers to rt_task.o(i.rt_block) for rt_block
    rt_event.o(i.rt_evt_wait) refers to rt_task.o(.data) for os_tsk
    rt_list.o(i.rt_dec_dly) refers to rt_list.o(i.rt_put_prio) for rt_put_prio
    rt_list.o(i.rt_dec_dly) refers to rt_list.o(.bss) for .bss
    rt_list.o(i.rt_dec_dly) refers to rt_time.o(.data) for os_time
    rt_list.o(i.rt_get_same_rdy_prio) refers to rt_list.o(.bss) for .bss
    rt_list.o(i.rt_get_same_rdy_prio) refers to rt_task.o(.data) for os_tsk
    rt_list.o(i.rt_psq_enq) refers to rtx_conf_cm.o(.text) for os_error
    rt_list.o(i.rt_psq_enq) refers to rtx_conf_cm.o(.bss) for os_fifo
    rt_list.o(i.rt_put_dly) refers to rt_list.o(.bss) for .bss
    rt_list.o(i.rt_put_rdy_first) refers to rt_list.o(.bss) for .bss
    rt_list.o(i.rt_resort_prio) refers to rt_list.o(i.rt_rmv_list) for rt_rmv_list
    rt_list.o(i.rt_resort_prio) refers to rt_list.o(i.rt_put_prio) for rt_put_prio
    rt_list.o(i.rt_resort_prio) refers to rt_list.o(.bss) for .bss
    rt_list.o(i.rt_rmv_list) refers to rt_list.o(.bss) for .bss
    rt_mailbox.o(i.isr_mbx_receive) refers to rt_list.o(i.rt_psq_enq) for rt_psq_enq
    rt_mailbox.o(i.isr_mbx_receive) refers to rt_system.o(i.rt_psh_req) for rt_psh_req
    rt_mailbox.o(i.isr_mbx_send) refers to rt_list.o(i.rt_psq_enq) for rt_psq_enq
    rt_mailbox.o(i.isr_mbx_send) refers to rt_system.o(i.rt_psh_req) for rt_psh_req
    rt_mailbox.o(i.rt_mbx_psh) refers to rt_membox.o(i.rt_alloc_box) for rt_alloc_box
    rt_mailbox.o(i.rt_mbx_psh) refers to rt_list.o(i.rt_get_first) for rt_get_first
    rt_mailbox.o(i.rt_mbx_psh) refers to hal_cm.o(i.rt_ret_val) for rt_ret_val
    rt_mailbox.o(i.rt_mbx_psh) refers to rt_list.o(i.rt_rmv_dly) for rt_rmv_dly
    rt_mailbox.o(i.rt_mbx_psh) refers to rt_list.o(i.rt_put_prio) for rt_put_prio
    rt_mailbox.o(i.rt_mbx_psh) refers to hal_cm.o(i.rt_ret_val2) for rt_ret_val2
    rt_mailbox.o(i.rt_mbx_psh) refers to rtx_conf_cm.o(.text) for os_error
    rt_mailbox.o(i.rt_mbx_psh) refers to rt_list.o(.bss) for os_rdy
    rt_mailbox.o(i.rt_mbx_send) refers to rt_list.o(i.rt_put_prio) for rt_put_prio
    rt_mailbox.o(i.rt_mbx_send) refers to rt_list.o(i.rt_get_first) for rt_get_first
    rt_mailbox.o(i.rt_mbx_send) refers to hal_cm.o(i.rt_ret_val2) for rt_ret_val2
    rt_mailbox.o(i.rt_mbx_send) refers to rt_list.o(i.rt_rmv_dly) for rt_rmv_dly
    rt_mailbox.o(i.rt_mbx_send) refers to rt_task.o(i.rt_dispatch) for rt_dispatch
    rt_mailbox.o(i.rt_mbx_send) refers to rt_task.o(i.rt_block) for rt_block
    rt_mailbox.o(i.rt_mbx_send) refers to rt_task.o(.data) for os_tsk
    rt_mailbox.o(i.rt_mbx_wait) refers to rt_list.o(i.rt_get_first) for rt_get_first
    rt_mailbox.o(i.rt_mbx_wait) refers to hal_cm.o(i.rt_ret_val) for rt_ret_val
    rt_mailbox.o(i.rt_mbx_wait) refers to rt_list.o(i.rt_rmv_dly) for rt_rmv_dly
    rt_mailbox.o(i.rt_mbx_wait) refers to rt_task.o(i.rt_dispatch) for rt_dispatch
    rt_mailbox.o(i.rt_mbx_wait) refers to rt_list.o(i.rt_put_prio) for rt_put_prio
    rt_mailbox.o(i.rt_mbx_wait) refers to rt_task.o(i.rt_block) for rt_block
    rt_mailbox.o(i.rt_mbx_wait) refers to rt_task.o(.data) for os_tsk
    rt_semaphore.o(i.isr_sem_send) refers to rt_list.o(i.rt_psq_enq) for rt_psq_enq
    rt_semaphore.o(i.isr_sem_send) refers to rt_system.o(i.rt_psh_req) for rt_psh_req
    rt_semaphore.o(i.rt_sem_delete) refers to rt_list.o(i.rt_get_first) for rt_get_first
    rt_semaphore.o(i.rt_sem_delete) refers to hal_cm.o(i.rt_ret_val) for rt_ret_val
    rt_semaphore.o(i.rt_sem_delete) refers to rt_list.o(i.rt_rmv_dly) for rt_rmv_dly
    rt_semaphore.o(i.rt_sem_delete) refers to rt_list.o(i.rt_put_prio) for rt_put_prio
    rt_semaphore.o(i.rt_sem_delete) refers to rt_task.o(i.rt_dispatch) for rt_dispatch
    rt_semaphore.o(i.rt_sem_delete) refers to rt_list.o(.bss) for os_rdy
    rt_semaphore.o(i.rt_sem_delete) refers to rt_task.o(.data) for os_tsk
    rt_semaphore.o(i.rt_sem_psh) refers to rt_list.o(i.rt_get_first) for rt_get_first
    rt_semaphore.o(i.rt_sem_psh) refers to rt_list.o(i.rt_rmv_dly) for rt_rmv_dly
    rt_semaphore.o(i.rt_sem_psh) refers to hal_cm.o(i.rt_ret_val) for rt_ret_val
    rt_semaphore.o(i.rt_sem_psh) refers to rt_list.o(i.rt_put_prio) for rt_put_prio
    rt_semaphore.o(i.rt_sem_psh) refers to rt_list.o(.bss) for os_rdy
    rt_semaphore.o(i.rt_sem_send) refers to rt_list.o(i.rt_get_first) for rt_get_first
    rt_semaphore.o(i.rt_sem_send) refers to hal_cm.o(i.rt_ret_val) for rt_ret_val
    rt_semaphore.o(i.rt_sem_send) refers to rt_list.o(i.rt_rmv_dly) for rt_rmv_dly
    rt_semaphore.o(i.rt_sem_send) refers to rt_task.o(i.rt_dispatch) for rt_dispatch
    rt_semaphore.o(i.rt_sem_wait) refers to rt_list.o(i.rt_put_prio) for rt_put_prio
    rt_semaphore.o(i.rt_sem_wait) refers to rt_task.o(i.rt_block) for rt_block
    rt_semaphore.o(i.rt_sem_wait) refers to rt_task.o(.data) for os_tsk
    rt_time.o(i.rt_dly_wait) refers to rt_task.o(i.rt_block) for rt_block
    rt_time.o(i.rt_itv_set) refers to rt_task.o(.data) for os_tsk
    rt_time.o(i.rt_itv_set) refers to rt_time.o(.data) for .data
    rt_time.o(i.rt_itv_wait) refers to rt_task.o(i.rt_block) for rt_block
    rt_time.o(i.rt_itv_wait) refers to rt_task.o(.data) for os_tsk
    rt_time.o(i.rt_itv_wait) refers to rt_time.o(.data) for .data
    rt_time.o(i.rt_time_get) refers to rt_time.o(.data) for .data
    rt_mutex.o(i.rt_mut_delete) refers to rt_list.o(i.rt_resort_prio) for rt_resort_prio
    rt_mutex.o(i.rt_mut_delete) refers to rt_list.o(i.rt_get_first) for rt_get_first
    rt_mutex.o(i.rt_mut_delete) refers to hal_cm.o(i.rt_ret_val) for rt_ret_val
    rt_mutex.o(i.rt_mut_delete) refers to rt_list.o(i.rt_rmv_dly) for rt_rmv_dly
    rt_mutex.o(i.rt_mut_delete) refers to rt_list.o(i.rt_put_prio) for rt_put_prio
    rt_mutex.o(i.rt_mut_delete) refers to rt_task.o(i.rt_dispatch) for rt_dispatch
    rt_mutex.o(i.rt_mut_delete) refers to rt_task.o(.data) for os_tsk
    rt_mutex.o(i.rt_mut_delete) refers to rt_list.o(.bss) for os_rdy
    rt_mutex.o(i.rt_mut_release) refers to rt_list.o(i.rt_get_first) for rt_get_first
    rt_mutex.o(i.rt_mut_release) refers to hal_cm.o(i.rt_ret_val) for rt_ret_val
    rt_mutex.o(i.rt_mut_release) refers to rt_list.o(i.rt_rmv_dly) for rt_rmv_dly
    rt_mutex.o(i.rt_mut_release) refers to rt_list.o(i.rt_put_prio) for rt_put_prio
    rt_mutex.o(i.rt_mut_release) refers to rt_task.o(i.rt_dispatch) for rt_dispatch
    rt_mutex.o(i.rt_mut_release) refers to rt_task.o(.data) for os_tsk
    rt_mutex.o(i.rt_mut_release) refers to rt_list.o(.bss) for os_rdy
    rt_mutex.o(i.rt_mut_wait) refers to rt_list.o(i.rt_resort_prio) for rt_resort_prio
    rt_mutex.o(i.rt_mut_wait) refers to rt_list.o(i.rt_put_prio) for rt_put_prio
    rt_mutex.o(i.rt_mut_wait) refers to rt_task.o(i.rt_block) for rt_block
    rt_mutex.o(i.rt_mut_wait) refers to rt_task.o(.data) for os_tsk
    rt_membox.o(i._calloc_box) refers to hal_cm3.o(.emb_text) for _alloc_box
    hal_cm.o(i.dbg_init) refers to hal_cm.o(.data) for .data
    hal_cm.o(i.rt_init_stack) refers to rtx_conf_cm.o(.constdata) for os_stackinfo
    net_ndp.o(i.ndp_cache_add) refers to net_addr.o(i.net_addr6_comp) for net_addr6_comp
    net_ndp.o(i.ndp_cache_add) refers to net_ndp.o(i.ndp_cache_alloc) for ndp_cache_alloc
    net_ndp.o(i.ndp_cache_add) refers to net_addr.o(i.net_addr6_copy) for net_addr6_copy
    net_ndp.o(i.ndp_cache_add) refers to net_config.o(.constdata) for net_eth0_config
    net_ndp.o(i.ndp_cache_add) refers to net_ndp.o(.bss) for .bss
    net_ndp.o(i.ndp_cache_add) refers to net_config.o(.constdata) for net_localm6
    net_ndp.o(i.ndp_cache_alloc) refers to net_config.o(.constdata) for net_eth0_config
    net_ndp.o(i.ndp_is_onlink) refers to memcmp.o(.text) for memcmp
    net_ndp.o(i.ndp_is_onlink) refers to net_addr.o(i.net_addr6_is_onlink) for net_addr6_is_onlink
    net_ndp.o(i.ndp_is_onlink) refers to net_ndp.o(.bss) for .bss
    net_ndp.o(i.ndp_is_onlink) refers to net_config.o(.constdata) for net_localm6
    net_ndp.o(i.ndp_prefix_add) refers to memcmp.o(.text) for memcmp
    net_ndp.o(i.ndp_prefix_add) refers to net_addr.o(i.net_addr6_create) for net_addr6_create
    net_ndp.o(i.ndp_prefix_add) refers to net_ndp.o(.bss) for .bss
    net_ndp.o(i.ndp_prefix_add) refers to net_config.o(.constdata) for net_localm6
    net_ndp.o(i.ndp_prefix_add) refers to net_config.o(.constdata) for net_eth0_config
    net_ndp.o(i.ndp_probe_run) refers to net_ndp.o(i.ndp_send_request) for ndp_send_request
    net_ndp.o(i.ndp_probe_run) refers to net_ndp.o(.bss) for .bss
    net_ndp.o(i.ndp_proc_response) refers to net_addr.o(i.net_addr6_comp) for net_addr6_comp
    net_ndp.o(i.ndp_proc_response) refers to net_ndp.o(i.ndp_next_opt) for ndp_next_opt
    net_ndp.o(i.ndp_proc_response) refers to net_config.o(.constdata) for net_eth0_config
    net_ndp.o(i.ndp_router_remove) refers to net_addr.o(i.net_addr6_copy) for net_addr6_copy
    net_ndp.o(i.ndp_router_remove) refers to net_ndp.o(.bss) for .bss
    net_ndp.o(i.ndp_router_remove) refers to net_addr.o(.constdata) for net_addr_null
    net_ndp.o(i.ndp_router_remove) refers to net_config.o(.constdata) for net_localm6
    net_ndp.o(i.ndp_send_reply) refers to net_mem.o(i.net_mem_alloc) for net_mem_alloc
    net_ndp.o(i.ndp_send_reply) refers to net_addr.o(i.net_addr6_copy) for net_addr6_copy
    net_ndp.o(i.ndp_send_reply) refers to net_icmp6.o(i.net_icmp6_send) for net_icmp6_send
    net_ndp.o(i.ndp_send_reply) refers to net_mem.o(i.net_mem_free) for net_mem_free
    net_ndp.o(i.ndp_send_reply) refers to net_config.o(.constdata) for net_eth0_config
    net_ndp.o(i.ndp_send_reply) refers to net_ip6.o(.constdata) for net_addr6_all_nodes
    net_ndp.o(i.ndp_send_request) refers to net_mem.o(i.net_mem_alloc) for net_mem_alloc
    net_ndp.o(i.ndp_send_request) refers to net_addr.o(i.net_addr6_copy) for net_addr6_copy
    net_ndp.o(i.ndp_send_request) refers to net_ip6.o(i.net_ip6_get_local) for net_ip6_get_local
    net_ndp.o(i.ndp_send_request) refers to net_icmp6.o(i.net_icmp6_send) for net_icmp6_send
    net_ndp.o(i.ndp_send_request) refers to net_mem.o(i.net_mem_free) for net_mem_free
    net_ndp.o(i.ndp_send_request) refers to net_config.o(.constdata) for net_eth0_config
    net_ndp.o(i.ndp_send_request) refers to net_addr.o(.constdata) for net_addr_null
    net_ndp.o(i.ndp_slaac_run) refers to net_addr.o(i.net_addr6_create) for net_addr6_create
    net_ndp.o(i.ndp_slaac_run) refers to net_sys.o(i.net_rand32) for net_rand32
    net_ndp.o(i.ndp_slaac_run) refers to net_ndp.o(i.ndp_send_request) for ndp_send_request
    net_ndp.o(i.ndp_slaac_run) refers to net_ndp.o(.bss) for .bss
    net_ndp.o(i.ndp_slaac_run) refers to net_eth.o(.bss) for net_eth_control
    net_ndp.o(i.ndp_slaac_run) refers to net_config.o(.constdata) for net_eth0_config
    net_ndp.o(i.ndp_slaac_run) refers to net_config.o(.constdata) for net_localm6
    net_ndp.o(i.ndp_slaac_run) refers to net_ip6.o(.constdata) for net_addr6_all_routers
    net_ndp.o(i.ndp_slaac_run) refers to net_sys.o(.bss) for net_sys_control
    net_ndp.o(i.netNDP_CacheIP) refers to net_sys.o(i.net_sys_lock) for net_sys_lock
    net_ndp.o(i.netNDP_CacheIP) refers to net_ndp.o(i.net_ndp_cache_find) for net_ndp_cache_find
    net_ndp.o(i.netNDP_CacheIP) refers to net_sys.o(i.net_sys_unlock) for net_sys_unlock
    net_ndp.o(i.netNDP_GetIP) refers to net_sys.o(i.net_sys_lock) for net_sys_lock
    net_ndp.o(i.netNDP_GetIP) refers to net_addr.o(i.net_addr6_copy) for net_addr6_copy
    net_ndp.o(i.netNDP_GetIP) refers to net_sys.o(i.net_sys_unlock) for net_sys_unlock
    net_ndp.o(i.netNDP_GetIP) refers to net_config.o(.constdata) for net_eth0_config
    net_ndp.o(i.netNDP_GetMAC) refers to net_sys.o(i.net_sys_lock) for net_sys_lock
    net_ndp.o(i.netNDP_GetMAC) refers to net_ndp.o(i.net_ndp_find_mac) for net_ndp_find_mac
    net_ndp.o(i.netNDP_GetMAC) refers to net_sys.o(i.net_sys_unlock) for net_sys_unlock
    net_ndp.o(i.netNDP_Probe) refers to net_sys.o(i.net_sys_lock) for net_sys_lock
    net_ndp.o(i.netNDP_Probe) refers to net_addr.o(i.net_addr6_is_unspec) for net_addr6_is_unspec
    net_ndp.o(i.netNDP_Probe) refers to net_addr.o(i.net_addr6_comp) for net_addr6_comp
    net_ndp.o(i.netNDP_Probe) refers to net_addr.o(i.net_addr6_copy) for net_addr6_copy
    net_ndp.o(i.netNDP_Probe) refers to net_ndp.o(i.ndp_send_request) for ndp_send_request
    net_ndp.o(i.netNDP_Probe) refers to net_sys.o(i.net_sys_unlock) for net_sys_unlock
    net_ndp.o(i.netNDP_Probe) refers to net_ip6.o(.constdata) for net_addr6_loopback
    net_ndp.o(i.netNDP_Probe) refers to net_ndp.o(.bss) for .bss
    net_ndp.o(i.net_ndp_cache_find) refers to net_ndp.o(i.ndp_is_onlink) for ndp_is_onlink
    net_ndp.o(i.net_ndp_cache_find) refers to net_addr.o(i.net_addr6_is_unspec) for net_addr6_is_unspec
    net_ndp.o(i.net_ndp_cache_find) refers to net_addr.o(i.net_addr6_is_linklocal) for net_addr6_is_linklocal
    net_ndp.o(i.net_ndp_cache_find) refers to net_addr.o(i.net_addr6_comp) for net_addr6_comp
    net_ndp.o(i.net_ndp_cache_find) refers to net_ndp.o(i.ndp_cache_alloc) for ndp_cache_alloc
    net_ndp.o(i.net_ndp_cache_find) refers to net_addr.o(i.net_addr6_copy) for net_addr6_copy
    net_ndp.o(i.net_ndp_cache_find) refers to net_config.o(.constdata) for net_localm6
    net_ndp.o(i.net_ndp_cache_find) refers to net_ndp.o(.bss) for .bss
    net_ndp.o(i.net_ndp_cache_find) refers to net_config.o(.constdata) for net_eth0_config
    net_ndp.o(i.net_ndp_cache_mac) refers to net_config.o(.constdata) for net_eth0_config
    net_ndp.o(i.net_ndp_cache_refresh) refers to net_addr.o(i.net_addr6_comp) for net_addr6_comp
    net_ndp.o(i.net_ndp_cache_refresh) refers to net_config.o(.constdata) for net_eth0_config
    net_ndp.o(i.net_ndp_find_mac) refers to net_addr.o(i.net_addr6_comp) for net_addr6_comp
    net_ndp.o(i.net_ndp_find_mac) refers to net_config.o(.constdata) for net_eth0_config
    net_ndp.o(i.net_ndp_init) refers to memseta.o(.text) for __aeabi_memclr
    net_ndp.o(i.net_ndp_init) refers to net_addr.o(i.net_addr6_create) for net_addr6_create
    net_ndp.o(i.net_ndp_init) refers to net_config.o(.constdata) for net_eth0_config
    net_ndp.o(i.net_ndp_init) refers to net_ndp.o(.bss) for .bss
    net_ndp.o(i.net_ndp_init) refers to net_config.o(.constdata) for net_localm6
    net_ndp.o(i.net_ndp_process) refers to net_ndp.o(i.ndp_check_frame) for ndp_check_frame
    net_ndp.o(i.net_ndp_process) refers to net_addr.o(i.net_addr6_comp) for net_addr6_comp
    net_ndp.o(i.net_ndp_process) refers to net_addr.o(i.net_addr6_is_linklocal) for net_addr6_is_linklocal
    net_ndp.o(i.net_ndp_process) refers to net_ndp.o(i.ndp_cache_add) for ndp_cache_add
    net_ndp.o(i.net_ndp_process) refers to net_ndp.o(i.ndp_router_remove) for ndp_router_remove
    net_ndp.o(i.net_ndp_process) refers to net_ndp.o(i.ndp_prefix_add) for ndp_prefix_add
    net_ndp.o(i.net_ndp_process) refers to net_ndp.o(i.ndp_next_opt) for ndp_next_opt
    net_ndp.o(i.net_ndp_process) refers to net_addr.o(i.net_addr6_is_unspec) for net_addr6_is_unspec
    net_ndp.o(i.net_ndp_process) refers to net_ndp.o(i.ndp_send_reply) for ndp_send_reply
    net_ndp.o(i.net_ndp_process) refers to net_ndp.o(i.ndp_proc_response) for ndp_proc_response
    net_ndp.o(i.net_ndp_process) refers to net_config.o(.constdata) for net_localm6
    net_ndp.o(i.net_ndp_process) refers to net_config.o(.constdata) for net_eth0_config
    net_ndp.o(i.net_ndp_process) refers to net_ndp.o(.bss) for .bss
    net_ndp.o(i.net_ndp_process) refers to net_ip6.o(.constdata) for net_addr6_all_nodes
    net_ndp.o(i.net_ndp_run) refers to net_ndp.o(i.ndp_slaac_run) for ndp_slaac_run
    net_ndp.o(i.net_ndp_run) refers to net_ndp.o(i.ndp_probe_run) for ndp_probe_run
    net_ndp.o(i.net_ndp_run) refers to net_ndp.o(i.ndp_router_remove) for ndp_router_remove
    net_ndp.o(i.net_ndp_run) refers to net_ndp.o(i.ndp_send_request) for ndp_send_request
    net_ndp.o(i.net_ndp_run) refers to net_ndp.o(.data) for .data
    net_ndp.o(i.net_ndp_run) refers to net_sys.o(.bss) for net_sys_control
    net_ndp.o(i.net_ndp_run) refers to net_config.o(.constdata) for net_eth0_config
    net_ip4.o(i.ip4_get_chksum) refers to net_ip4.o(i.net_ip4_chksum_buf) for net_ip4_chksum_buf
    net_ip4.o(i.ip4_get_mtu) refers to net_config.o(.constdata) for net_localm
    net_ip4.o(i.ip4_get_route) refers to net_addr.o(i.net_addr4_is_subnet) for net_addr4_is_subnet
    net_ip4.o(i.ip4_get_route) refers to net_config.o(.constdata) for net_sys_config
    net_ip4.o(i.ip4_get_route) refers to net_config.o(.constdata) for net_localm
    net_ip4.o(i.ip4_get_route) refers to net_ip4.o(.constdata) for .constdata
    net_ip4.o(i.ip4_get_route) refers to net_ip4.o(.data) for .data
    net_ip4.o(i.net_ip4_chk_frame) refers to net_ip4.o(i.net_ip4_is_subcast) for net_ip4_is_subcast
    net_ip4.o(i.net_ip4_chk_frame) refers to net_config.o(.text) for net_igmp_is_member
    net_ip4.o(i.net_ip4_chk_frame) refers to net_eth.o(i.net_eth_is_my_addr) for net_eth_is_my_addr
    net_ip4.o(i.net_ip4_chk_frame) refers to net_ip4.o(i.ip4_get_chksum) for ip4_get_chksum
    net_ip4.o(i.net_ip4_chk_frame) refers to net_ip4.o(i.ip4_get_mtu) for ip4_get_mtu
    net_ip4.o(i.net_ip4_chk_frame) refers to net_sys.o(.bss) for net_sys_control
    net_ip4.o(i.net_ip4_chk_frame) refers to net_config.o(.constdata) for net_localm
    net_ip4.o(i.net_ip4_chk_frame) refers to net_ip4.o(.constdata) for .constdata
    net_ip4.o(i.net_ip4_def_localm) refers to net_ip4.o(.data) for .data
    net_ip4.o(i.net_ip4_def_localm) refers to net_config.o(.constdata) for net_localm
    net_ip4.o(i.net_ip4_get_local) refers to net_ip4.o(i.ip4_get_route) for ip4_get_route
    net_ip4.o(i.net_ip4_get_local) refers to net_ip4.o(.data) for .data
    net_ip4.o(i.net_ip4_get_local) refers to net_config.o(.constdata) for net_localm
    net_ip4.o(i.net_ip4_get_local) refers to net_ip4.o(.constdata) for .constdata
    net_ip4.o(i.net_ip4_init) refers to net_ip4.o(.data) for .data
    net_ip4.o(i.net_ip4_init) refers to net_config.o(.constdata) for net_sys_config
    net_ip4.o(i.net_ip4_is_subcast) refers to net_config.o(.constdata) for net_localm
    net_ip4.o(i.net_ip4_reass_frame) refers to net_config.o(.text) for net_ip4_frag_add
    net_ip4.o(i.net_ip4_send_frame) refers to net_ip4.o(i.net_ip4_get_local) for net_ip4_get_local
    net_ip4.o(i.net_ip4_send_frame) refers to net_ip4.o(i.ip4_get_mtu) for ip4_get_mtu
    net_ip4.o(i.net_ip4_send_frame) refers to net_config.o(.text) for net_ip4_frag_get
    net_ip4.o(i.net_ip4_send_frame) refers to net_ip4.o(i.ip4_get_chksum) for ip4_get_chksum
    net_ip4.o(i.net_ip4_send_frame) refers to net_eth.o(i.net_eth_send_frame) for net_eth_send_frame
    net_ip4.o(i.net_ip4_send_frame) refers to net_loop.o(i.net_loop_send_frame) for net_loop_send_frame
    net_ip4.o(i.net_ip4_send_frame) refers to net_sys.o(.bss) for net_sys_control
    net_ip4.o(i.net_ip4_send_frame) refers to net_ip4.o(.data) for .data
    net_ip4.o(i.net_ip4_set_netif) refers to net_config.o(.constdata) for net_sys_config
    net_ip4.o(i.net_ip4_set_netif) refers to net_ip4.o(.data) for .data
    net_ip4.o(i.net_ip4_tx_offload) refers to net_ip4.o(i.ip4_get_route) for ip4_get_route
    net_ip4.o(i.net_ip4_tx_offload) refers to net_ip4.o(.data) for .data
    net_ip4.o(i.net_ip4_tx_offload) refers to net_config.o(.constdata) for net_localm
    net_ip4.o(i.net_ip4_tx_offload) refers to net_sys.o(.bss) for net_sys_control
    net_icmp.o(i.net_icmp_process) refers to net_ip4.o(i.net_ip4_chksum_buf) for net_ip4_chksum_buf
    net_icmp.o(i.net_icmp_process) refers to net_mem.o(i.net_mem_alloc) for net_mem_alloc
    net_icmp.o(i.net_icmp_process) refers to memmovea.o(.text) for __aeabi_memcpy
    net_icmp.o(i.net_icmp_process) refers to net_ip4.o(i.net_ip4_send_frame) for net_ip4_send_frame
    net_icmp.o(i.net_icmp_process) refers to net_mem.o(i.net_mem_free) for net_mem_free
    net_icmp.o(i.net_icmp_process) refers to memcmp.o(.text) for memcmp
    net_icmp.o(i.net_icmp_process) refers to net_sys.o(.bss) for net_sys_control
    net_icmp.o(i.net_icmp_process) refers to net_config.o(.constdata) for net_localm
    net_icmp.o(i.net_icmp_process) refers to net_ping.o(.bss) for net_ping_control
    net_icmp.o(i.net_icmp_process) refers to net_ping.o(.constdata) for net_ping_payload
    net_icmp.o(i.net_icmp_send_echo) refers to net_mem.o(i.net_mem_alloc) for net_mem_alloc
    net_icmp.o(i.net_icmp_send_echo) refers to memmovea.o(.text) for __aeabi_memcpy
    net_icmp.o(i.net_icmp_send_echo) refers to net_ip4.o(i.net_ip4_tx_offload) for net_ip4_tx_offload
    net_icmp.o(i.net_icmp_send_echo) refers to net_ip4.o(i.net_ip4_chksum_buf) for net_ip4_chksum_buf
    net_icmp.o(i.net_icmp_send_echo) refers to net_ip4.o(i.net_ip4_send_frame) for net_ip4_send_frame
    net_icmp.o(i.net_icmp_send_echo) refers to net_mem.o(i.net_mem_free) for net_mem_free
    net_icmp.o(i.net_icmp_send_echo) refers to net_ping.o(.bss) for net_ping_control
    net_icmp.o(i.net_icmp_send_echo) refers to net_ping.o(.constdata) for net_ping_payload
    net_ip6.o(i.ip6_get_route) refers to net_addr.o(i.net_addr6_comp) for net_addr6_comp
    net_ip6.o(i.ip6_get_route) refers to net_config.o(.constdata) for net_sys_config
    net_ip6.o(i.ip6_get_route) refers to net_ip6.o(.constdata) for .constdata
    net_ip6.o(i.ip6_get_route) refers to net_ip6.o(.data) for .data
    net_ip6.o(i.net_ip6_chk_frame) refers to net_addr.o(i.net_addr6_is_solicited) for net_addr6_is_solicited
    net_ip6.o(i.net_ip6_chk_frame) refers to net_addr.o(i.net_addr6_comp) for net_addr6_comp
    net_ip6.o(i.net_ip6_chk_frame) refers to net_sys.o(.bss) for net_sys_control
    net_ip6.o(i.net_ip6_chk_frame) refers to net_config.o(.constdata) for net_localm6
    net_ip6.o(i.net_ip6_chk_frame) refers to net_ip6.o(.constdata) for .constdata
    net_ip6.o(i.net_ip6_def_localm) refers to net_ip6.o(.data) for .data
    net_ip6.o(i.net_ip6_def_localm) refers to net_config.o(.constdata) for net_localm6
    net_ip6.o(i.net_ip6_get_local) refers to net_ip6.o(i.ip6_get_route) for ip6_get_route
    net_ip6.o(i.net_ip6_get_local) refers to net_addr.o(i.net_addr6_is_unspec) for net_addr6_is_unspec
    net_ip6.o(i.net_ip6_get_local) refers to net_ip6.o(.data) for .data
    net_ip6.o(i.net_ip6_get_local) refers to net_ip6.o(.constdata) for .constdata
    net_ip6.o(i.net_ip6_get_local) refers to net_config.o(.constdata) for net_localm6
    net_ip6.o(i.net_ip6_init) refers to net_ip6.o(.data) for .data
    net_ip6.o(i.net_ip6_init) refers to net_config.o(.constdata) for net_sys_config
    net_ip6.o(i.net_ip6_send_frame) refers to net_addr.o(i.net_addr6_copy) for net_addr6_copy
    net_ip6.o(i.net_ip6_send_frame) refers to net_eth.o(i.net_eth_send_frame) for net_eth_send_frame
    net_ip6.o(i.net_ip6_send_frame) refers to net_loop.o(i.net_loop_send_frame) for net_loop_send_frame
    net_ip6.o(i.net_ip6_send_frame) refers to net_ip6.o(.data) for .data
    net_ip6.o(i.net_ip6_send_frame) refers to net_sys.o(.bss) for net_sys_control
    net_ip6.o(i.net_ip6_send_frame) refers to net_config.o(.constdata) for net_localm6
    net_ip6.o(i.net_ip6_set_netif) refers to net_config.o(.constdata) for net_sys_config
    net_ip6.o(i.net_ip6_set_netif) refers to net_ip6.o(.data) for .data
    net_ip6.o(i.net_ip6_tx_netif) refers to net_ip6.o(.data) for .data
    net_ip6.o(i.net_ip6_tx_offload) refers to net_ip6.o(i.ip6_get_route) for ip6_get_route
    net_ip6.o(i.net_ip6_tx_offload) refers to net_ip6.o(.data) for .data
    net_ip6.o(i.net_ip6_tx_offload) refers to net_sys.o(.bss) for net_sys_control
    net_icmp6.o(i.net_icmp6_process) refers to net_ip6.o(i.net_ip6_checksum) for net_ip6_checksum
    net_icmp6.o(i.net_icmp6_process) refers to net_mem.o(i.net_mem_alloc) for net_mem_alloc
    net_icmp6.o(i.net_icmp6_process) refers to memmovea.o(.text) for __aeabi_memcpy
    net_icmp6.o(i.net_icmp6_process) refers to net_ip6.o(i.net_ip6_tx_netif) for net_ip6_tx_netif
    net_icmp6.o(i.net_icmp6_process) refers to net_ip6.o(i.net_ip6_send_frame) for net_ip6_send_frame
    net_icmp6.o(i.net_icmp6_process) refers to net_mem.o(i.net_mem_free) for net_mem_free
    net_icmp6.o(i.net_icmp6_process) refers to net_addr.o(i.net_addr6_comp) for net_addr6_comp
    net_icmp6.o(i.net_icmp6_process) refers to memcmp.o(.text) for memcmp
    net_icmp6.o(i.net_icmp6_process) refers to net_ndp.o(i.net_ndp_process) for net_ndp_process
    net_icmp6.o(i.net_icmp6_process) refers to net_sys.o(.bss) for net_sys_control
    net_icmp6.o(i.net_icmp6_process) refers to net_ping.o(.bss) for net_ping_control
    net_icmp6.o(i.net_icmp6_process) refers to net_ping.o(.constdata) for net_ping_payload
    net_icmp6.o(i.net_icmp6_send) refers to net_addr.o(i.net_addr6_get_solicited) for net_addr6_get_solicited
    net_icmp6.o(i.net_icmp6_send) refers to net_ip6.o(i.net_ip6_tx_offload) for net_ip6_tx_offload
    net_icmp6.o(i.net_icmp6_send) refers to net_ip6.o(i.net_ip6_checksum) for net_ip6_checksum
    net_icmp6.o(i.net_icmp6_send) refers to net_ip6.o(i.net_ip6_send_frame) for net_ip6_send_frame
    net_icmp6.o(i.net_icmp6_send_echo) refers to net_mem.o(i.net_mem_alloc) for net_mem_alloc
    net_icmp6.o(i.net_icmp6_send_echo) refers to memmovea.o(.text) for __aeabi_memcpy
    net_icmp6.o(i.net_icmp6_send_echo) refers to net_icmp6.o(i.net_icmp6_send) for net_icmp6_send
    net_icmp6.o(i.net_icmp6_send_echo) refers to net_mem.o(i.net_mem_free) for net_mem_free
    net_icmp6.o(i.net_icmp6_send_echo) refers to net_ping.o(.bss) for net_ping_control
    net_icmp6.o(i.net_icmp6_send_echo) refers to net_ping.o(.constdata) for net_ping_payload
    net_mem.o(i.mem_lock) refers to net_config.o(.text) for netos_lock
    net_mem.o(i.mem_lock) refers to net_mem.o(.bss) for .bss
    net_mem.o(i.mem_unlock) refers to net_config.o(.text) for netos_unlock
    net_mem.o(i.mem_unlock) refers to net_mem.o(.bss) for .bss
    net_mem.o(i.net_mem_alloc) refers to net_mem.o(i.mem_lock) for mem_lock
    net_mem.o(i.net_mem_alloc) refers to net_mem.o(i.mem_unlock) for mem_unlock
    net_mem.o(i.net_mem_alloc) refers to net_config.o(.text) for net_sys_error
    net_mem.o(i.net_mem_alloc) refers to net_mem.o(.bss) for .bss
    net_mem.o(i.net_mem_alloc) refers to net_config.o(.constdata) for net_sys_config
    net_mem.o(i.net_mem_avail) refers to net_mem.o(.bss) for .bss
    net_mem.o(i.net_mem_free) refers to net_mem.o(i.mem_lock) for mem_lock
    net_mem.o(i.net_mem_free) refers to net_mem.o(i.mem_unlock) for mem_unlock
    net_mem.o(i.net_mem_free) refers to net_config.o(.text) for net_sys_error
    net_mem.o(i.net_mem_free) refers to net_config.o(.constdata) for net_sys_config
    net_mem.o(i.net_mem_free) refers to net_mem.o(.bss) for .bss
    net_mem.o(i.net_mem_init) refers to net_config.o(.text) for netos_mutex_create
    net_mem.o(i.net_mem_init) refers to net_config.o(.constdata) for net_sys_config
    net_mem.o(i.net_mem_init) refers to net_mem.o(.bss) for .bss
    net_mem.o(i.net_mem_shrink) refers to net_mem.o(i.mem_lock) for mem_lock
    net_mem.o(i.net_mem_shrink) refers to net_mem.o(i.mem_unlock) for mem_unlock
    net_mem.o(i.net_mem_shrink) refers to net_mem.o(.bss) for .bss
    net_common.o(i.net_b64_encode_buf) refers to net_common.o(i.encode_b64) for encode_b64
    net_common.o(i.net_b64_encode_str) refers to net_common.o(i.encode_b64) for encode_b64
    net_common.o(i.net_crc32_buf) refers to net_common.o(i.crc32_8bit) for crc32_8bit
    net_common.o(i.net_strcrc) refers to net_common.o(i.crc32_8bit) for crc32_8bit
    rt_robin.o(i.rt_chk_robin) refers to rt_list.o(i.rt_get_first) for rt_get_first
    rt_robin.o(i.rt_chk_robin) refers to rt_list.o(i.rt_put_prio) for rt_put_prio
    rt_robin.o(i.rt_chk_robin) refers to rt_robin.o(.data) for .data
    rt_robin.o(i.rt_chk_robin) refers to rt_list.o(.bss) for os_rdy
    rt_robin.o(i.rt_chk_robin) refers to rt_time.o(.data) for os_time
    rt_robin.o(i.rt_init_robin) refers to rt_robin.o(.data) for .data
    rt_robin.o(i.rt_init_robin) refers to rtx_conf_cm.o(.constdata) for os_rrobin
    hal_cm3.o(.emb_text) refers to rtx_conf_cm.o(.constdata) for os_flags
    hal_cm3.o(.emb_text) refers to rt_membox.o(i.rt_alloc_box) for rt_alloc_box
    hal_cm3.o(.emb_text) refers to rt_membox.o(i.rt_free_box) for rt_free_box
    hal_cm3.o(.emb_text) refers to rt_system.o(i.rt_stk_check) for rt_stk_check
    hal_cm3.o(.emb_text) refers to rt_task.o(.data) for os_tsk
    hal_cm3.o(.emb_text) refers to svc_table.o(SVC_TABLE) for SVC_Count
    hal_cm3.o(.emb_text) refers to rt_system.o(i.rt_pop_req) for rt_pop_req
    hal_cm3.o(.emb_text) refers to rt_system.o(i.rt_systick) for rt_systick
    hal_cm3.o(.emb_text) refers to rt_system.o(i.os_tick_irqack) for os_tick_irqack
    entry.o(.ARM.Collect$$$$00000000) refers (Special) to entry10a.o(.ARM.Collect$$$$0000000D) for __rt_final_cpp
    entry.o(.ARM.Collect$$$$00000000) refers (Special) to entry11a.o(.ARM.Collect$$$$0000000F) for __rt_final_exit
    entry.o(.ARM.Collect$$$$00000000) refers (Special) to entry7b.o(.ARM.Collect$$$$00000008) for _main_clock
    entry.o(.ARM.Collect$$$$00000000) refers (Special) to entry8b.o(.ARM.Collect$$$$0000000A) for _main_cpp_init
    entry.o(.ARM.Collect$$$$00000000) refers (Special) to rtx_conf_cm.o(.ARM.Collect$$$$000000FF) for _main_init
    entry.o(.ARM.Collect$$$$00000000) refers (Special) to entry5.o(.ARM.Collect$$$$00000004) for _main_scatterload
    entry.o(.ARM.Collect$$$$00000000) refers (Special) to entry2.o(.ARM.Collect$$$$00000001) for _main_stk
    uldiv.o(.text) refers to llushr.o(.text) for __aeabi_llsr
    uldiv.o(.text) refers to llshl.o(.text) for __aeabi_llsl
    printfb.o(i.__0fprintf$bare) refers to printfb.o(i._printf_core) for _printf_core
    printfb.o(i.__0fprintf$bare) refers to fputc.o(i.fputc) for fputc
    printfb.o(i.__0printf$bare) refers to printfb.o(i._printf_core) for _printf_core
    printfb.o(i.__0printf$bare) refers to fputc.o(i.fputc) for fputc
    printfb.o(i.__0printf$bare) refers to stdout.o(.data) for __stdout
    printfb.o(i.__0snprintf$bare) refers to printfb.o(i._printf_core) for _printf_core
    printfb.o(i.__0snprintf$bare) refers to printfb.o(i._snputc) for _snputc
    printfb.o(i.__0sprintf$bare) refers to printfb.o(i._printf_core) for _printf_core
    printfb.o(i.__0sprintf$bare) refers to printfb.o(i._sputc) for _sputc
    printfb.o(i.__0vfprintf$bare) refers to printfb.o(i._printf_core) for _printf_core
    printfb.o(i.__0vfprintf$bare) refers to fputc.o(i.fputc) for fputc
    printfb.o(i.__0vprintf$bare) refers to printfb.o(i._printf_core) for _printf_core
    printfb.o(i.__0vprintf$bare) refers to fputc.o(i.fputc) for fputc
    printfb.o(i.__0vprintf$bare) refers to stdout.o(.data) for __stdout
    printfb.o(i.__0vsnprintf$bare) refers to printfb.o(i._printf_core) for _printf_core
    printfb.o(i.__0vsnprintf$bare) refers to printfb.o(i._snputc) for _snputc
    printfb.o(i.__0vsprintf$bare) refers to printfb.o(i._printf_core) for _printf_core
    printfb.o(i.__0vsprintf$bare) refers to printfb.o(i._sputc) for _sputc
    printf0.o(i.__0fprintf$0) refers to printf0.o(i._printf_core) for _printf_core
    printf0.o(i.__0fprintf$0) refers to fputc.o(i.fputc) for fputc
    printf0.o(i.__0printf$0) refers to printf0.o(i._printf_core) for _printf_core
    printf0.o(i.__0printf$0) refers to fputc.o(i.fputc) for fputc
    printf0.o(i.__0printf$0) refers to stdout.o(.data) for __stdout
    printf0.o(i.__0snprintf$0) refers to printf0.o(i._printf_core) for _printf_core
    printf0.o(i.__0snprintf$0) refers to printf0.o(i._snputc) for _snputc
    printf0.o(i.__0sprintf$0) refers to printf0.o(i._printf_core) for _printf_core
    printf0.o(i.__0sprintf$0) refers to printf0.o(i._sputc) for _sputc
    printf0.o(i.__0vfprintf$0) refers to printf0.o(i._printf_core) for _printf_core
    printf0.o(i.__0vfprintf$0) refers to fputc.o(i.fputc) for fputc
    printf0.o(i.__0vprintf$0) refers to printf0.o(i._printf_core) for _printf_core
    printf0.o(i.__0vprintf$0) refers to fputc.o(i.fputc) for fputc
    printf0.o(i.__0vprintf$0) refers to stdout.o(.data) for __stdout
    printf0.o(i.__0vsnprintf$0) refers to printf0.o(i._printf_core) for _printf_core
    printf0.o(i.__0vsnprintf$0) refers to printf0.o(i._snputc) for _snputc
    printf0.o(i.__0vsprintf$0) refers to printf0.o(i._printf_core) for _printf_core
    printf0.o(i.__0vsprintf$0) refers to printf0.o(i._sputc) for _sputc
    printf1.o(i.__0fprintf$1) refers to printf1.o(i._printf_core) for _printf_core
    printf1.o(i.__0fprintf$1) refers to fputc.o(i.fputc) for fputc
    printf1.o(i.__0printf$1) refers to printf1.o(i._printf_core) for _printf_core
    printf1.o(i.__0printf$1) refers to fputc.o(i.fputc) for fputc
    printf1.o(i.__0printf$1) refers to stdout.o(.data) for __stdout
    printf1.o(i.__0snprintf$1) refers to printf1.o(i._printf_core) for _printf_core
    printf1.o(i.__0snprintf$1) refers to printf1.o(i._snputc) for _snputc
    printf1.o(i.__0sprintf$1) refers to printf1.o(i._printf_core) for _printf_core
    printf1.o(i.__0sprintf$1) refers to printf1.o(i._sputc) for _sputc
    printf1.o(i.__0vfprintf$1) refers to printf1.o(i._printf_core) for _printf_core
    printf1.o(i.__0vfprintf$1) refers to fputc.o(i.fputc) for fputc
    printf1.o(i.__0vprintf$1) refers to printf1.o(i._printf_core) for _printf_core
    printf1.o(i.__0vprintf$1) refers to fputc.o(i.fputc) for fputc
    printf1.o(i.__0vprintf$1) refers to stdout.o(.data) for __stdout
    printf1.o(i.__0vsnprintf$1) refers to printf1.o(i._printf_core) for _printf_core
    printf1.o(i.__0vsnprintf$1) refers to printf1.o(i._snputc) for _snputc
    printf1.o(i.__0vsprintf$1) refers to printf1.o(i._printf_core) for _printf_core
    printf1.o(i.__0vsprintf$1) refers to printf1.o(i._sputc) for _sputc
    printf1.o(i._printf_core) refers to uidiv.o(.text) for __aeabi_uidivmod
    printf2.o(i.__0fprintf$2) refers to printf2.o(i._printf_core) for _printf_core
    printf2.o(i.__0fprintf$2) refers to fputc.o(i.fputc) for fputc
    printf2.o(i.__0printf$2) refers to printf2.o(i._printf_core) for _printf_core
    printf2.o(i.__0printf$2) refers to fputc.o(i.fputc) for fputc
    printf2.o(i.__0printf$2) refers to stdout.o(.data) for __stdout
    printf2.o(i.__0snprintf$2) refers to printf2.o(i._printf_core) for _printf_core
    printf2.o(i.__0snprintf$2) refers to printf2.o(i._snputc) for _snputc
    printf2.o(i.__0sprintf$2) refers to printf2.o(i._printf_core) for _printf_core
    printf2.o(i.__0sprintf$2) refers to printf2.o(i._sputc) for _sputc
    printf2.o(i.__0vfprintf$2) refers to printf2.o(i._printf_core) for _printf_core
    printf2.o(i.__0vfprintf$2) refers to fputc.o(i.fputc) for fputc
    printf2.o(i.__0vprintf$2) refers to printf2.o(i._printf_core) for _printf_core
    printf2.o(i.__0vprintf$2) refers to fputc.o(i.fputc) for fputc
    printf2.o(i.__0vprintf$2) refers to stdout.o(.data) for __stdout
    printf2.o(i.__0vsnprintf$2) refers to printf2.o(i._printf_core) for _printf_core
    printf2.o(i.__0vsnprintf$2) refers to printf2.o(i._snputc) for _snputc
    printf2.o(i.__0vsprintf$2) refers to printf2.o(i._printf_core) for _printf_core
    printf2.o(i.__0vsprintf$2) refers to printf2.o(i._sputc) for _sputc
    printf3.o(i.__0fprintf$3) refers to printf3.o(i._printf_core) for _printf_core
    printf3.o(i.__0fprintf$3) refers to fputc.o(i.fputc) for fputc
    printf3.o(i.__0printf$3) refers to printf3.o(i._printf_core) for _printf_core
    printf3.o(i.__0printf$3) refers to fputc.o(i.fputc) for fputc
    printf3.o(i.__0printf$3) refers to stdout.o(.data) for __stdout
    printf3.o(i.__0snprintf$3) refers to printf3.o(i._printf_core) for _printf_core
    printf3.o(i.__0snprintf$3) refers to printf3.o(i._snputc) for _snputc
    printf3.o(i.__0sprintf$3) refers to printf3.o(i._printf_core) for _printf_core
    printf3.o(i.__0sprintf$3) refers to printf3.o(i._sputc) for _sputc
    printf3.o(i.__0vfprintf$3) refers to printf3.o(i._printf_core) for _printf_core
    printf3.o(i.__0vfprintf$3) refers to fputc.o(i.fputc) for fputc
    printf3.o(i.__0vprintf$3) refers to printf3.o(i._printf_core) for _printf_core
    printf3.o(i.__0vprintf$3) refers to fputc.o(i.fputc) for fputc
    printf3.o(i.__0vprintf$3) refers to stdout.o(.data) for __stdout
    printf3.o(i.__0vsnprintf$3) refers to printf3.o(i._printf_core) for _printf_core
    printf3.o(i.__0vsnprintf$3) refers to printf3.o(i._snputc) for _snputc
    printf3.o(i.__0vsprintf$3) refers to printf3.o(i._printf_core) for _printf_core
    printf3.o(i.__0vsprintf$3) refers to printf3.o(i._sputc) for _sputc
    printf3.o(i._printf_core) refers to uidiv.o(.text) for __aeabi_uidivmod
    printf4.o(i.__0fprintf$4) refers to printf4.o(i._printf_core) for _printf_core
    printf4.o(i.__0fprintf$4) refers to fputc.o(i.fputc) for fputc
    printf4.o(i.__0printf$4) refers to printf4.o(i._printf_core) for _printf_core
    printf4.o(i.__0printf$4) refers to fputc.o(i.fputc) for fputc
    printf4.o(i.__0printf$4) refers to stdout.o(.data) for __stdout
    printf4.o(i.__0snprintf$4) refers to printf4.o(i._printf_core) for _printf_core
    printf4.o(i.__0snprintf$4) refers to printf4.o(i._snputc) for _snputc
    printf4.o(i.__0sprintf$4) refers to printf4.o(i._printf_core) for _printf_core
    printf4.o(i.__0sprintf$4) refers to printf4.o(i._sputc) for _sputc
    printf4.o(i.__0vfprintf$4) refers to printf4.o(i._printf_core) for _printf_core
    printf4.o(i.__0vfprintf$4) refers to fputc.o(i.fputc) for fputc
    printf4.o(i.__0vprintf$4) refers to printf4.o(i._printf_core) for _printf_core
    printf4.o(i.__0vprintf$4) refers to fputc.o(i.fputc) for fputc
    printf4.o(i.__0vprintf$4) refers to stdout.o(.data) for __stdout
    printf4.o(i.__0vsnprintf$4) refers to printf4.o(i._printf_core) for _printf_core
    printf4.o(i.__0vsnprintf$4) refers to printf4.o(i._snputc) for _snputc
    printf4.o(i.__0vsprintf$4) refers to printf4.o(i._printf_core) for _printf_core
    printf4.o(i.__0vsprintf$4) refers to printf4.o(i._sputc) for _sputc
    printf4.o(i._printf_core) refers to uldiv.o(.text) for __aeabi_uldivmod
    printf5.o(i.__0fprintf$5) refers to printf5.o(i._printf_core) for _printf_core
    printf5.o(i.__0fprintf$5) refers to fputc.o(i.fputc) for fputc
    printf5.o(i.__0printf$5) refers to printf5.o(i._printf_core) for _printf_core
    printf5.o(i.__0printf$5) refers to fputc.o(i.fputc) for fputc
    printf5.o(i.__0printf$5) refers to stdout.o(.data) for __stdout
    printf5.o(i.__0snprintf$5) refers to printf5.o(i._printf_core) for _printf_core
    printf5.o(i.__0snprintf$5) refers to printf5.o(i._snputc) for _snputc
    printf5.o(i.__0sprintf$5) refers to printf5.o(i._printf_core) for _printf_core
    printf5.o(i.__0sprintf$5) refers to printf5.o(i._sputc) for _sputc
    printf5.o(i.__0vfprintf$5) refers to printf5.o(i._printf_core) for _printf_core
    printf5.o(i.__0vfprintf$5) refers to fputc.o(i.fputc) for fputc
    printf5.o(i.__0vprintf$5) refers to printf5.o(i._printf_core) for _printf_core
    printf5.o(i.__0vprintf$5) refers to fputc.o(i.fputc) for fputc
    printf5.o(i.__0vprintf$5) refers to stdout.o(.data) for __stdout
    printf5.o(i.__0vsnprintf$5) refers to printf5.o(i._printf_core) for _printf_core
    printf5.o(i.__0vsnprintf$5) refers to printf5.o(i._snputc) for _snputc
    printf5.o(i.__0vsprintf$5) refers to printf5.o(i._printf_core) for _printf_core
    printf5.o(i.__0vsprintf$5) refers to printf5.o(i._sputc) for _sputc
    printf5.o(i._printf_core) refers to uldiv.o(.text) for __aeabi_uldivmod
    printf6.o(i.__0fprintf$6) refers to printf6.o(i._printf_core) for _printf_core
    printf6.o(i.__0fprintf$6) refers to fputc.o(i.fputc) for fputc
    printf6.o(i.__0printf$6) refers to printf6.o(i._printf_core) for _printf_core
    printf6.o(i.__0printf$6) refers to fputc.o(i.fputc) for fputc
    printf6.o(i.__0printf$6) refers to stdout.o(.data) for __stdout
    printf6.o(i.__0snprintf$6) refers to printf6.o(i._printf_core) for _printf_core
    printf6.o(i.__0snprintf$6) refers to printf6.o(i._snputc) for _snputc
    printf6.o(i.__0sprintf$6) refers to printf6.o(i._printf_core) for _printf_core
    printf6.o(i.__0sprintf$6) refers to printf6.o(i._sputc) for _sputc
    printf6.o(i.__0vfprintf$6) refers to printf6.o(i._printf_core) for _printf_core
    printf6.o(i.__0vfprintf$6) refers to fputc.o(i.fputc) for fputc
    printf6.o(i.__0vprintf$6) refers to printf6.o(i._printf_core) for _printf_core
    printf6.o(i.__0vprintf$6) refers to fputc.o(i.fputc) for fputc
    printf6.o(i.__0vprintf$6) refers to stdout.o(.data) for __stdout
    printf6.o(i.__0vsnprintf$6) refers to printf6.o(i._printf_core) for _printf_core
    printf6.o(i.__0vsnprintf$6) refers to printf6.o(i._snputc) for _snputc
    printf6.o(i.__0vsprintf$6) refers to printf6.o(i._printf_core) for _printf_core
    printf6.o(i.__0vsprintf$6) refers to printf6.o(i._sputc) for _sputc
    printf6.o(i._printf_core) refers to printf6.o(i._printf_pre_padding) for _printf_pre_padding
    printf6.o(i._printf_core) refers to uidiv.o(.text) for __aeabi_uidivmod
    printf6.o(i._printf_core) refers to printf6.o(i._printf_post_padding) for _printf_post_padding
    printf7.o(i.__0fprintf$7) refers to printf7.o(i._printf_core) for _printf_core
    printf7.o(i.__0fprintf$7) refers to fputc.o(i.fputc) for fputc
    printf7.o(i.__0printf$7) refers to printf7.o(i._printf_core) for _printf_core
    printf7.o(i.__0printf$7) refers to fputc.o(i.fputc) for fputc
    printf7.o(i.__0printf$7) refers to stdout.o(.data) for __stdout
    printf7.o(i.__0snprintf$7) refers to printf7.o(i._printf_core) for _printf_core
    printf7.o(i.__0snprintf$7) refers to printf7.o(i._snputc) for _snputc
    printf7.o(i.__0sprintf$7) refers to printf7.o(i._printf_core) for _printf_core
    printf7.o(i.__0sprintf$7) refers to printf7.o(i._sputc) for _sputc
    printf7.o(i.__0vfprintf$7) refers to printf7.o(i._printf_core) for _printf_core
    printf7.o(i.__0vfprintf$7) refers to fputc.o(i.fputc) for fputc
    printf7.o(i.__0vprintf$7) refers to printf7.o(i._printf_core) for _printf_core
    printf7.o(i.__0vprintf$7) refers to fputc.o(i.fputc) for fputc
    printf7.o(i.__0vprintf$7) refers to stdout.o(.data) for __stdout
    printf7.o(i.__0vsnprintf$7) refers to printf7.o(i._printf_core) for _printf_core
    printf7.o(i.__0vsnprintf$7) refers to printf7.o(i._snputc) for _snputc
    printf7.o(i.__0vsprintf$7) refers to printf7.o(i._printf_core) for _printf_core
    printf7.o(i.__0vsprintf$7) refers to printf7.o(i._sputc) for _sputc
    printf7.o(i._printf_core) refers to printf7.o(i._printf_pre_padding) for _printf_pre_padding
    printf7.o(i._printf_core) refers to uldiv.o(.text) for __aeabi_uldivmod
    printf7.o(i._printf_core) refers to printf7.o(i._printf_post_padding) for _printf_post_padding
    printf8.o(i.__0fprintf$8) refers to printf8.o(i._printf_core) for _printf_core
    printf8.o(i.__0fprintf$8) refers to fputc.o(i.fputc) for fputc
    printf8.o(i.__0printf$8) refers to printf8.o(i._printf_core) for _printf_core
    printf8.o(i.__0printf$8) refers to fputc.o(i.fputc) for fputc
    printf8.o(i.__0printf$8) refers to stdout.o(.data) for __stdout
    printf8.o(i.__0snprintf$8) refers to printf8.o(i._printf_core) for _printf_core
    printf8.o(i.__0snprintf$8) refers to printf8.o(i._snputc) for _snputc
    printf8.o(i.__0sprintf$8) refers to printf8.o(i._printf_core) for _printf_core
    printf8.o(i.__0sprintf$8) refers to printf8.o(i._sputc) for _sputc
    printf8.o(i.__0vfprintf$8) refers to printf8.o(i._printf_core) for _printf_core
    printf8.o(i.__0vfprintf$8) refers to fputc.o(i.fputc) for fputc
    printf8.o(i.__0vprintf$8) refers to printf8.o(i._printf_core) for _printf_core
    printf8.o(i.__0vprintf$8) refers to fputc.o(i.fputc) for fputc
    printf8.o(i.__0vprintf$8) refers to stdout.o(.data) for __stdout
    printf8.o(i.__0vsnprintf$8) refers to printf8.o(i._printf_core) for _printf_core
    printf8.o(i.__0vsnprintf$8) refers to printf8.o(i._snputc) for _snputc
    printf8.o(i.__0vsprintf$8) refers to printf8.o(i._printf_core) for _printf_core
    printf8.o(i.__0vsprintf$8) refers to printf8.o(i._sputc) for _sputc
    printf8.o(i._printf_core) refers to printf8.o(i._printf_pre_padding) for _printf_pre_padding
    printf8.o(i._printf_core) refers to uldiv.o(.text) for __aeabi_uldivmod
    printf8.o(i._printf_core) refers to printf8.o(i._printf_post_padding) for _printf_post_padding
    printfa.o(i.__0fprintf) refers (Special) to iusefp.o(.text) for __I$use$fp
    printfa.o(i.__0fprintf) refers to printfa.o(i._printf_core) for _printf_core
    printfa.o(i.__0fprintf) refers to fputc.o(i.fputc) for fputc
    printfa.o(i.__0printf) refers (Special) to iusefp.o(.text) for __I$use$fp
    printfa.o(i.__0printf) refers to printfa.o(i._printf_core) for _printf_core
    printfa.o(i.__0printf) refers to fputc.o(i.fputc) for fputc
    printfa.o(i.__0printf) refers to stdout.o(.data) for __stdout
    printfa.o(i.__0snprintf) refers (Special) to iusefp.o(.text) for __I$use$fp
    printfa.o(i.__0snprintf) refers to printfa.o(i._printf_core) for _printf_core
    printfa.o(i.__0snprintf) refers to printfa.o(i._snputc) for _snputc
    printfa.o(i.__0sprintf) refers (Special) to iusefp.o(.text) for __I$use$fp
    printfa.o(i.__0sprintf) refers to printfa.o(i._printf_core) for _printf_core
    printfa.o(i.__0sprintf) refers to printfa.o(i._sputc) for _sputc
    printfa.o(i.__0vfprintf) refers (Special) to iusefp.o(.text) for __I$use$fp
    printfa.o(i.__0vfprintf) refers to printfa.o(i._printf_core) for _printf_core
    printfa.o(i.__0vfprintf) refers to fputc.o(i.fputc) for fputc
    printfa.o(i.__0vprintf) refers (Special) to iusefp.o(.text) for __I$use$fp
    printfa.o(i.__0vprintf) refers to printfa.o(i._printf_core) for _printf_core
    printfa.o(i.__0vprintf) refers to fputc.o(i.fputc) for fputc
    printfa.o(i.__0vprintf) refers to stdout.o(.data) for __stdout
    printfa.o(i.__0vsnprintf) refers (Special) to iusefp.o(.text) for __I$use$fp
    printfa.o(i.__0vsnprintf) refers to printfa.o(i._printf_core) for _printf_core
    printfa.o(i.__0vsnprintf) refers to printfa.o(i._snputc) for _snputc
    printfa.o(i.__0vsprintf) refers (Special) to iusefp.o(.text) for __I$use$fp
    printfa.o(i.__0vsprintf) refers to printfa.o(i._printf_core) for _printf_core
    printfa.o(i.__0vsprintf) refers to printfa.o(i._sputc) for _sputc
    printfa.o(i._fp_digits) refers (Special) to iusefp.o(.text) for __I$use$fp
    printfa.o(i._fp_digits) refers to dmul.o(.text) for __aeabi_dmul
    printfa.o(i._fp_digits) refers to ddiv.o(.text) for __aeabi_ddiv
    printfa.o(i._fp_digits) refers to cdrcmple.o(.text) for __aeabi_cdrcmple
    printfa.o(i._fp_digits) refers to dadd.o(.text) for __aeabi_dadd
    printfa.o(i._fp_digits) refers to dfixul.o(.text) for __aeabi_d2ulz
    printfa.o(i._fp_digits) refers to uldiv.o(.text) for __aeabi_uldivmod
    printfa.o(i._printf_core) refers (Special) to iusefp.o(.text) for __I$use$fp
    printfa.o(i._printf_core) refers to printfa.o(i._printf_pre_padding) for _printf_pre_padding
    printfa.o(i._printf_core) refers to uldiv.o(.text) for __aeabi_uldivmod
    printfa.o(i._printf_core) refers to printfa.o(i._printf_post_padding) for _printf_post_padding
    printfa.o(i._printf_core) refers to printfa.o(i._fp_digits) for _fp_digits
    printfa.o(i._printf_core) refers to uidiv.o(.text) for __aeabi_uidivmod
    printfa.o(i._printf_post_padding) refers (Special) to iusefp.o(.text) for __I$use$fp
    printfa.o(i._printf_pre_padding) refers (Special) to iusefp.o(.text) for __I$use$fp
    printfa.o(i._snputc) refers (Special) to iusefp.o(.text) for __I$use$fp
    printfa.o(i._sputc) refers (Special) to iusefp.o(.text) for __I$use$fp
    __0sscanf.o(.text) refers to scanf_char.o(.text) for __vfscanf_char
    __0sscanf.o(.text) refers to _sgetc.o(.text) for _sgetc
    _scanf_int.o(.text) refers to _chval.o(.text) for _chval
    entry2.o(.ARM.Collect$$$$00000001) refers to entry2.o(.ARM.Collect$$$$00002712) for __lit__00000000
    entry2.o(.ARM.Collect$$$$00002712) refers to startup_stm32f10x_cl.o(STACK) for __initial_sp
    entry2.o(__vectab_stack_and_reset_area) refers to startup_stm32f10x_cl.o(STACK) for __initial_sp
    entry2.o(__vectab_stack_and_reset_area) refers to entry.o(.ARM.Collect$$$$00000000) for __main
    entry5.o(.ARM.Collect$$$$00000004) refers to init.o(.text) for __scatterload
    fputc.o(i.fputc) refers (Special) to iusesemip.o(.text) for __I$use$semihosting$fputc
    fputc.o(i.fputc) refers (Special) to semi.o(.text) for __semihosting_library_function
    scanf_char.o(.text) refers to _scanf.o(.text) for __vfscanf
    scanf_char.o(.text) refers to isspace_c.o(.text) for isspace
    dadd.o(.text) refers to llshl.o(.text) for __aeabi_llsl
    dadd.o(.text) refers to llsshr.o(.text) for __aeabi_lasr
    dadd.o(.text) refers to depilogue.o(.text) for _double_epilogue
    dmul.o(.text) refers to depilogue.o(.text) for _double_epilogue
    ddiv.o(.text) refers to depilogue.o(.text) for _double_round
    dfixul.o(.text) refers to llushr.o(.text) for __aeabi_llsr
    dfixul.o(.text) refers to llshl.o(.text) for __aeabi_llsl
    init.o(.text) refers to entry5.o(.ARM.Collect$$$$00000004) for __main_after_scatterload
    isspace_c.o(.text) refers to ctype_c.o(.text) for __ctype_lookup
    _scanf.o(.text) refers (Weak) to _scanf_int.o(.text) for _scanf_int
    depilogue.o(.text) refers to llshl.o(.text) for __aeabi_llsl
    depilogue.o(.text) refers to llushr.o(.text) for __aeabi_llsr
    ctype_c.o(.text) refers to ctype_c.o(.constdata) for .constdata
    net_version.o(.ARM.RL_ARM1) refers to net_version.o(.ARM.RL_ARM2) for .ARM.RL_ARM2
    net_version.o(.ARM.RL_ARM2) refers to net_version.o(.ARM.RL_ARM3) for .ARM.RL_ARM3
    net_version.o(.ARM.RL_ARM3) refers to net_version.o(.ARM.RL_ARM4) for .ARM.RL_ARM4
    net_version.o(.ARM.RL_ARM4) refers to net_version.o(.ARM.RL_ARM5) for .ARM.RL_ARM5
    net_version.o(.ARM.RL_ARM5) refers to net_version.o(.ARM.RL_ARM6) for .ARM.RL_ARM6
    net_version.o(.ARM.RL_ARM6) refers to net_version.o(.ARM.RL_ARM1) for .ARM.RL_ARM1


==============================================================================

Removing Unused input sections from the image.

    Removing telnet_server.o(.data), (4 bytes).
    Removing rtc.o(.constdata), (4 bytes).
    Removing rtc.o(.constdata), (4 bytes).
    Removing rtc.o(.constdata), (4 bytes).
    Removing rtc.o(.constdata), (4 bytes).
    Removing rtc.o(.constdata), (4 bytes).
    Removing rtc.o(.constdata), (4 bytes).
    Removing rtc.o(.constdata), (4 bytes).
    Removing rtc.o(.constdata), (4 bytes).
    Removing rtc.o(.constdata), (4 bytes).
    Removing rtc.o(.constdata), (4 bytes).
    Removing rtc.o(.constdata), (4 bytes).
    Removing rtc.o(.constdata), (4 bytes).
    Removing rtc.o(.constdata), (4 bytes).
    Removing backlight.o(.rev16_text), (4 bytes).
    Removing backlight.o(.revsh_text), (4 bytes).
    Removing backlight.o(.rrx_text), (6 bytes).
    Removing timer.o(.rev16_text), (4 bytes).
    Removing timer.o(.revsh_text), (4 bytes).
    Removing timer.o(.rrx_text), (6 bytes).
    Removing sntp.o(.bss), (72 bytes).
    Removing adc_mcbstm32c.o(.rev16_text), (4 bytes).
    Removing adc_mcbstm32c.o(.revsh_text), (4 bytes).
    Removing adc_mcbstm32c.o(.rrx_text), (6 bytes).
    Removing glcd_fonts.o(.constdata), (896 bytes).
    Removing glcd_fonts.o(.constdata), (16 bytes).
    Removing glcd_mcbstm32c.o(.rev16_text), (4 bytes).
    Removing glcd_mcbstm32c.o(.revsh_text), (4 bytes).
    Removing glcd_mcbstm32c.o(.rrx_text), (6 bytes).
    Removing led_mcbstm32c.o(.rev16_text), (4 bytes).
    Removing led_mcbstm32c.o(.revsh_text), (4 bytes).
    Removing led_mcbstm32c.o(.rrx_text), (6 bytes).
    Removing rtx_conf_cm.o(.constdata), (4 bytes).
    Removing rtx_conf_cm.o(.constdata), (2 bytes).
    Removing rtx_conf_cm.o(.constdata), (2 bytes).
    Removing rtx_conf_cm.o(.data), (4 bytes).
    Removing emac_stm32f10x.o(.rev16_text), (4 bytes).
    Removing emac_stm32f10x.o(.revsh_text), (4 bytes).
    Removing emac_stm32f10x.o(.rrx_text), (6 bytes).
    Removing spi_stm32f10x.o(.rev16_text), (4 bytes).
    Removing spi_stm32f10x.o(.revsh_text), (4 bytes).
    Removing spi_stm32f10x.o(.rrx_text), (6 bytes).
    Removing dma_stm32f10x.o(.rev16_text), (4 bytes).
    Removing dma_stm32f10x.o(.revsh_text), (4 bytes).
    Removing dma_stm32f10x.o(.rrx_text), (6 bytes).
    Removing gpio_stm32f10x.o(.rev16_text), (4 bytes).
    Removing gpio_stm32f10x.o(.revsh_text), (4 bytes).
    Removing gpio_stm32f10x.o(.rrx_text), (6 bytes).
    Removing startup_stm32f10x_cl.o(HEAP), (512 bytes).
    Removing system_stm32f10x.o(.rev16_text), (4 bytes).
    Removing system_stm32f10x.o(.revsh_text), (4 bytes).
    Removing system_stm32f10x.o(.rrx_text), (6 bytes).
    Removing rt_cmsis.o(.rev16_text), (4 bytes).
    Removing rt_cmsis.o(.revsh_text), (4 bytes).
    Removing rt_cmsis.o(.rrx_text), (6 bytes).
    Removing rt_cmsis.o(i.osKernelRunning), (36 bytes).
    Removing rt_cmsis.o(i.osKernelSysTick), (24 bytes).
    Removing rt_cmsis.o(i.osMailAlloc), (28 bytes).
    Removing rt_cmsis.o(i.osMailCAlloc), (48 bytes).
    Removing rt_cmsis.o(i.osMailCreate), (44 bytes).
    Removing rt_cmsis.o(i.osMailFree), (28 bytes).
    Removing rt_cmsis.o(i.osMailGet), (22 bytes).
    Removing rt_cmsis.o(i.osMailPut), (20 bytes).
    Removing rt_cmsis.o(i.osMessageCreate), (44 bytes).
    Removing rt_cmsis.o(i.osMessagePut), (24 bytes).
    Removing rt_cmsis.o(i.osMutexDelete), (24 bytes).
    Removing rt_cmsis.o(i.osPoolAlloc), (32 bytes).
    Removing rt_cmsis.o(i.osPoolCAlloc), (52 bytes).
    Removing rt_cmsis.o(i.osPoolCreate), (44 bytes).
    Removing rt_cmsis.o(i.osPoolFree), (32 bytes).
    Removing rt_cmsis.o(i.osSemaphoreDelete), (24 bytes).
    Removing rt_cmsis.o(i.osThreadGetPriority), (24 bytes).
    Removing rt_cmsis.o(i.osThreadSetPriority), (24 bytes).
    Removing rt_cmsis.o(i.osThreadTerminate), (24 bytes).
    Removing rt_cmsis.o(i.osTimerDelete), (24 bytes).
    Removing rt_cmsis.o(i.osTimerStop), (24 bytes).
    Removing rt_cmsis.o(i.osWait), (4 bytes).
    Removing rt_cmsis.o(i.os_resume), (12 bytes).
    Removing rt_cmsis.o(i.os_suspend), (12 bytes).
    Removing rt_cmsis.o(i.rt_clr_box), (24 bytes).
    Removing rt_cmsis.o(i.svcKernelRunning), (12 bytes).
    Removing rt_cmsis.o(i.svcKernelSysTick), (56 bytes).
    Removing rt_cmsis.o(i.svcMailCreate), (66 bytes).
    Removing rt_cmsis.o(i.svcMessagePut), (54 bytes).
    Removing rt_cmsis.o(i.svcMutexDelete), (26 bytes).
    Removing rt_cmsis.o(i.svcPoolCreate), (40 bytes).
    Removing rt_cmsis.o(i.svcSemaphoreDelete), (26 bytes).
    Removing rt_cmsis.o(i.svcThreadGetPriority), (18 bytes).
    Removing rt_cmsis.o(i.svcThreadSetPriority), (46 bytes).
    Removing rt_cmsis.o(i.svcTimerDelete), (40 bytes).
    Removing rt_cmsis.o(i.svcTimerStop), (36 bytes).
    Removing rt_cmsis.o(i.sysMailAlloc), (88 bytes).
    Removing rt_cmsis.o(i.sysMailFree), (96 bytes).
    Removing rt_cmsis.o(i.sysPoolAlloc), (10 bytes).
    Removing rt_cmsis.o(i.sysPoolFree), (20 bytes).
    Removing rt_cmsis.o(i.sysUserTimerUpdate), (48 bytes).
    Removing rt_cmsis.o(i.sysUserTimerWakeupTime), (20 bytes).
    Removing net_eth.o(i.netETH_SendRaw), (116 bytes).
    Removing net_eth.o(i.net_eth_get_addr), (14 bytes).
    Removing net_eth.o(i.net_eth_set_option), (216 bytes).
    Removing net_arp.o(i.netARP_CacheIP), (68 bytes).
    Removing net_arp.o(i.netARP_CacheMAC), (208 bytes).
    Removing net_arp.o(i.netARP_GetIP), (92 bytes).
    Removing net_arp.o(i.netARP_GetMAC), (52 bytes).
    Removing net_arp.o(i.netARP_Probe), (108 bytes).
    Removing net_arp.o(i.net_arp_find_mac), (52 bytes).
    Removing net_arp.o(i.net_arp_probe), (20 bytes).
    Removing net_udp.o(i.netUDP_Close), (24 bytes).
    Removing net_udp.o(i.netUDP_GetLocalPort), (4 bytes).
    Removing net_udp.o(i.netUDP_ReleaseSocket), (24 bytes).
    Removing net_udp.o(i.netUDP_SetOption), (32 bytes).
    Removing net_udp.o(i.net_udp_close), (44 bytes).
    Removing net_udp.o(i.net_udp_free_buf), (6 bytes).
    Removing net_udp.o(i.net_udp_get_local_port), (48 bytes).
    Removing net_udp.o(i.net_udp_keep_buf), (60 bytes).
    Removing net_udp.o(i.net_udp_release_socket), (60 bytes).
    Removing net_udp.o(i.net_udp_set_option), (112 bytes).
    Removing net_tcp.o(i.netTCP_Abort), (24 bytes).
    Removing net_tcp.o(i.netTCP_Close), (24 bytes).
    Removing net_tcp.o(i.netTCP_Connect), (32 bytes).
    Removing net_tcp.o(i.netTCP_GetBuffer), (4 bytes).
    Removing net_tcp.o(i.netTCP_GetMaxSegmentSize), (4 bytes).
    Removing net_tcp.o(i.netTCP_GetSocket), (24 bytes).
    Removing net_tcp.o(i.netTCP_Listen), (28 bytes).
    Removing net_tcp.o(i.netTCP_ReleaseSocket), (24 bytes).
    Removing net_tcp.o(i.netTCP_ResetReceiveWindow), (24 bytes).
    Removing net_tcp.o(i.netTCP_Send), (38 bytes).
    Removing net_tcp.o(i.netTCP_SendReady), (4 bytes).
    Removing net_tcp.o(i.netTCP_SetOption), (32 bytes).
    Removing net_tcp.o(i.net_tcp_abort), (92 bytes).
    Removing net_tcp.o(i.net_tcp_alloc_port), (68 bytes).
    Removing net_tcp.o(i.net_tcp_check_send), (64 bytes).
    Removing net_tcp.o(i.net_tcp_connect), (220 bytes).
    Removing net_tcp.o(i.net_tcp_ctrl_opt), (68 bytes).
    Removing net_tcp.o(i.net_tcp_release_socket), (64 bytes).
    Removing net_tcp.o(i.net_tcp_reset_tout), (48 bytes).
    Removing net_tcp.o(i.net_tcp_reset_window), (88 bytes).
    Removing net_dhcp6_client.o(i.dhcp6_client_stop), (104 bytes).
    Removing net_dhcp6_client.o(i.netDHCP6_Disable), (40 bytes).
    Removing net_dhcp6_client.o(i.netDHCP6_Enable), (56 bytes).
    Removing net_telnet_server.o(i.netTELNETs_GetPort), (12 bytes).
    Removing net_telnet_server.o(i.netTELNETs_GetSession), (12 bytes).
    Removing net_telnet_server.o(i.netTELNETs_GetUserId), (40 bytes).
    Removing net_telnet_server.o(i.netTELNETs_GetUsername), (12 bytes).
    Removing net_telnet_server.o(i.netTELNETs_LoginOnOff), (28 bytes).
    Removing net_telnet_server.o(i.netTELNETs_RequestMessage), (80 bytes).
    Removing net_telnet_server.o(i.netTELNETs_Running), (12 bytes).
    Removing net_telnet_server.o(i.netTELNETs_SetPort), (20 bytes).
    Removing net_telnet_server.o(i.netTELNETs_SetUsername), (56 bytes).
    Removing net_telnet_server.o(i.netTELNETs_Start), (32 bytes).
    Removing net_telnet_server.o(i.netTELNETs_Stop), (76 bytes).
    Removing net_ping.o(i.netPing_Echo), (136 bytes).
    Removing net_sys.o(i.netIF_SetDefault), (120 bytes).
    Removing net_sys.o(i.netIF_SetOption), (104 bytes).
    Removing net_sys.o(i.netSYS_GetHostName), (12 bytes).
    Removing net_sys.o(i.netSYS_SetHostName), (52 bytes).
    Removing net_sys.o(i.net_path), (52 bytes).
    Removing net_addr.o(i.mac_ntoa), (72 bytes).
    Removing net_addr.o(i.netIP_aton), (26 bytes).
    Removing net_addr.o(i.netMAC_ntoa), (16 bytes).
    Removing net_addr.o(i.net_addr4_ntoa), (12 bytes).
    Removing net_addr.o(i.net_addr6_ntoa), (12 bytes).
    Removing net_addr.o(i.net_addr_comp), (44 bytes).
    Removing net_addr.o(i.net_addr_get_lhost), (32 bytes).
    Removing net_addr.o(i.net_addr_ntoa), (14 bytes).
    Removing net_addr.o(i.net_mac_ntoa), (12 bytes).
    Removing rt_system.o(.emb_text), (0 bytes).
    Removing rt_system.o(i.os_tick_ovf), (16 bytes).
    Removing rt_system.o(i.os_tick_val), (20 bytes).
    Removing rt_system.o(i.rt_resume), (136 bytes).
    Removing rt_system.o(i.rt_suspend), (36 bytes).
    Removing rt_system.o(i.rt_tsk_lock), (80 bytes).
    Removing rt_system.o(i.rt_tsk_unlock), (80 bytes).
    Removing rt_event.o(i.rt_evt_get), (12 bytes).
    Removing rt_mailbox.o(i.rt_mbx_send), (152 bytes).
    Removing rt_semaphore.o(i.rt_sem_delete), (92 bytes).
    Removing rt_time.o(i.rt_itv_set), (24 bytes).
    Removing rt_time.o(i.rt_itv_wait), (40 bytes).
    Removing rt_time.o(i.rt_time_get), (12 bytes).
    Removing rt_mutex.o(i.rt_mut_delete), (176 bytes).
    Removing rt_membox.o(i._calloc_box), (30 bytes).
    Removing net_ndp.o(i.netNDP_CacheIP), (40 bytes).
    Removing net_ndp.o(i.netNDP_GetIP), (92 bytes).
    Removing net_ndp.o(i.netNDP_GetMAC), (52 bytes).
    Removing net_ndp.o(i.netNDP_Probe), (120 bytes).
    Removing net_ndp.o(i.net_ndp_cache_mac), (76 bytes).
    Removing net_ndp.o(i.net_ndp_find_mac), (60 bytes).
    Removing net_ip4.o(i.net_ip4_def_localm), (36 bytes).
    Removing net_ip4.o(i.net_ip4_set_netif), (36 bytes).
    Removing net_ip6.o(i.net_ip6_def_localm), (36 bytes).
    Removing net_ip6.o(i.net_ip6_set_netif), (36 bytes).
    Removing net_common.o(i.encode_b64), (76 bytes).
    Removing net_common.o(i.net_b64_decode), (122 bytes).
    Removing net_common.o(i.net_b64_encode_buf), (66 bytes).
    Removing net_common.o(i.net_b64_encode_str), (64 bytes).
    Removing net_common.o(i.net_strcasecmp), (46 bytes).
    Removing net_common.o(i.net_strchr), (22 bytes).
    Removing net_common.o(i.net_strcmp), (26 bytes).
    Removing net_common.o(i.net_strcrc), (26 bytes).
    Removing net_version.o(.emb_text), (0 bytes).
    Removing dadd.o(.text), (334 bytes).
    Removing dmul.o(.text), (228 bytes).
    Removing ddiv.o(.text), (222 bytes).
    Removing dfixul.o(.text), (48 bytes).
    Removing cdrcmple.o(.text), (48 bytes).
    Removing depilogue.o(.text), (186 bytes).
    Removing net_version.o(.ARM.RL_ARM1), (82 bytes).
    Removing net_version.o(.ARM.RL_ARM2), (76 bytes).
    Removing net_version.o(.ARM.RL_ARM3), (45 bytes).
    Removing net_version.o(.ARM.RL_ARM4), (65 bytes).
    Removing net_version.o(.ARM.RL_ARM5), (82 bytes).
    Removing net_version.o(.ARM.RL_ARM6), (77 bytes).

212 unused section(s) (total 10179 bytes) removed from the image.

==============================================================================

Image Symbol Table

    Local Symbols

    Symbol Name                              Value     Ov Type        Size  Object(Section)

    ../clib/microlib/ctype/ctype.c           0x00000000   Number         0  ctype_c.o ABSOLUTE
    ../clib/microlib/ctype/ctype.c           0x00000000   Number         0  isspace_c.o ABSOLUTE
    ../clib/microlib/division.c              0x00000000   Number         0  uidiv.o ABSOLUTE
    ../clib/microlib/division.c              0x00000000   Number         0  uldiv.o ABSOLUTE
    ../clib/microlib/init/entry.s            0x00000000   Number         0  entry11b.o ABSOLUTE
    ../clib/microlib/init/entry.s            0x00000000   Number         0  entry5.o ABSOLUTE
    ../clib/microlib/init/entry.s            0x00000000   Number         0  entry2.o ABSOLUTE
    ../clib/microlib/init/entry.s            0x00000000   Number         0  entry.o ABSOLUTE
    ../clib/microlib/init/entry.s            0x00000000   Number         0  entry10b.o ABSOLUTE
    ../clib/microlib/init/entry.s            0x00000000   Number         0  entry10a.o ABSOLUTE
    ../clib/microlib/init/entry.s            0x00000000   Number         0  entry8b.o ABSOLUTE
    ../clib/microlib/init/entry.s            0x00000000   Number         0  entry8a.o ABSOLUTE
    ../clib/microlib/init/entry.s            0x00000000   Number         0  entry7b.o ABSOLUTE
    ../clib/microlib/init/entry.s            0x00000000   Number         0  entry7a.o ABSOLUTE
    ../clib/microlib/init/entry.s            0x00000000   Number         0  entry11a.o ABSOLUTE
    ../clib/microlib/longlong.c              0x00000000   Number         0  llushr.o ABSOLUTE
    ../clib/microlib/longlong.c              0x00000000   Number         0  llsshr.o ABSOLUTE
    ../clib/microlib/longlong.c              0x00000000   Number         0  llshl.o ABSOLUTE
    ../clib/microlib/printf/printf.c         0x00000000   Number         0  printf4.o ABSOLUTE
    ../clib/microlib/printf/printf.c         0x00000000   Number         0  printf0.o ABSOLUTE
    ../clib/microlib/printf/printf.c         0x00000000   Number         0  printf1.o ABSOLUTE
    ../clib/microlib/printf/printf.c         0x00000000   Number         0  printf2.o ABSOLUTE
    ../clib/microlib/printf/printf.c         0x00000000   Number         0  printfa.o ABSOLUTE
    ../clib/microlib/printf/printf.c         0x00000000   Number         0  printf3.o ABSOLUTE
    ../clib/microlib/printf/printf.c         0x00000000   Number         0  printf8.o ABSOLUTE
    ../clib/microlib/printf/printf.c         0x00000000   Number         0  printf7.o ABSOLUTE
    ../clib/microlib/printf/printf.c         0x00000000   Number         0  printf6.o ABSOLUTE
    ../clib/microlib/printf/printf.c         0x00000000   Number         0  printf5.o ABSOLUTE
    ../clib/microlib/printf/printf.c         0x00000000   Number         0  printfb.o ABSOLUTE
    ../clib/microlib/printf/stubs.s          0x00000000   Number         0  stubs.o ABSOLUTE
    ../clib/microlib/stdio/fputc.c           0x00000000   Number         0  fputc.o ABSOLUTE
    ../clib/microlib/stdio/semi.s            0x00000000   Number         0  semi.o ABSOLUTE
    ../clib/microlib/stdio/streams.c         0x00000000   Number         0  stdout.o ABSOLUTE
    ../clib/microlib/string/memcmp.c         0x00000000   Number         0  memcmp.o ABSOLUTE
    ../clib/microlib/string/memcpy.c         0x00000000   Number         0  memmovea.o ABSOLUTE
    ../clib/microlib/string/memcpy.c         0x00000000   Number         0  memcpya.o ABSOLUTE
    ../clib/microlib/string/memcpy.c         0x00000000   Number         0  memmoveb.o ABSOLUTE
    ../clib/microlib/string/memcpy.c         0x00000000   Number         0  memcpyb.o ABSOLUTE
    ../clib/microlib/string/memset.c         0x00000000   Number         0  memseta.o ABSOLUTE
    ../clib/microlib/string/strcmp.c         0x00000000   Number         0  strcmp.o ABSOLUTE
    ../clib/microlib/string/strlen.c         0x00000000   Number         0  strlen.o ABSOLUTE
    ../clib/microlib/stubs.s                 0x00000000   Number         0  iusesemip.o ABSOLUTE
    ../clib/microlib/stubs.s                 0x00000000   Number         0  iusefp.o ABSOLUTE
    ../clib/scanf.c                          0x00000000   Number         0  __0sscanf.o ABSOLUTE
    ../clib/scanf.c                          0x00000000   Number         0  _scanf.o ABSOLUTE
    ../clib/scanf.c                          0x00000000   Number         0  _chval.o ABSOLUTE
    ../clib/scanf.c                          0x00000000   Number         0  scanf_char.o ABSOLUTE
    ../clib/scanf.c                          0x00000000   Number         0  _sgetc.o ABSOLUTE
    ../clib/scanf.c                          0x00000000   Number         0  _scanf_int.o ABSOLUTE
    ../fplib/microlib/fpadd.c                0x00000000   Number         0  dadd.o ABSOLUTE
    ../fplib/microlib/fpdiv.c                0x00000000   Number         0  ddiv.o ABSOLUTE
    ../fplib/microlib/fpepilogue.c           0x00000000   Number         0  depilogue.o ABSOLUTE
    ../fplib/microlib/fpfix.c                0x00000000   Number         0  dfixul.o ABSOLUTE
    ../fplib/microlib/fpmul.c                0x00000000   Number         0  dmul.o ABSOLUTE
    ..\HAL_CM.c                              0x00000000   Number         0  hal_cm.o ABSOLUTE
    ..\\rt_CMSIS.c                           0x00000000   Number         0  rt_cmsis.o ABSOLUTE
    ..\\rt_System.c                          0x00000000   Number         0  rt_system.o ABSOLUTE
    ..\rt_CMSIS.c                            0x00000000   Number         0  rt_cmsis.o ABSOLUTE
    ..\rt_Event.c                            0x00000000   Number         0  rt_event.o ABSOLUTE
    ..\rt_List.c                             0x00000000   Number         0  rt_list.o ABSOLUTE
    ..\rt_Mailbox.c                          0x00000000   Number         0  rt_mailbox.o ABSOLUTE
    ..\rt_MemBox.c                           0x00000000   Number         0  rt_membox.o ABSOLUTE
    ..\rt_Memory.c                           0x00000000   Number         0  rt_memory.o ABSOLUTE
    ..\rt_Mutex.c                            0x00000000   Number         0  rt_mutex.o ABSOLUTE
    ..\rt_Robin.c                            0x00000000   Number         0  rt_robin.o ABSOLUTE
    ..\rt_Semaphore.c                        0x00000000   Number         0  rt_semaphore.o ABSOLUTE
    ..\rt_System.c                           0x00000000   Number         0  rt_system.o ABSOLUTE
    ..\rt_Task.c                             0x00000000   Number         0  rt_task.o ABSOLUTE
    ..\rt_Time.c                             0x00000000   Number         0  rt_time.o ABSOLUTE
    Backlight.c                              0x00000000   Number         0  backlight.o ABSOLUTE
    Backlight.c                              0x00000000   Number         0  backlight.o ABSOLUTE
    C:\Keil_v5\ARM\PACK\Keil\MDK-Middleware\7.4.1\Network\Driver\PHY_DP83848C.c 0x00000000   Number         0  phy_dp83848c.o ABSOLUTE
    C:\Keil_v5\ARM\PACK\Keil\STM32F1xx_DFP\2.2.0\Boards\Keil\MCBSTM32C\Common\ADC_MCBSTM32C.c 0x00000000   Number         0  adc_mcbstm32c.o ABSOLUTE
    C:\Keil_v5\ARM\PACK\Keil\STM32F1xx_DFP\2.2.0\Boards\Keil\MCBSTM32C\Common\GLCD_Fonts.c 0x00000000   Number         0  glcd_fonts.o ABSOLUTE
    C:\Keil_v5\ARM\PACK\Keil\STM32F1xx_DFP\2.2.0\Boards\Keil\MCBSTM32C\Common\GLCD_MCBSTM32C.c 0x00000000   Number         0  glcd_mcbstm32c.o ABSOLUTE
    C:\Keil_v5\ARM\PACK\Keil\STM32F1xx_DFP\2.2.0\Boards\Keil\MCBSTM32C\Common\LED_MCBSTM32C.c 0x00000000   Number         0  led_mcbstm32c.o ABSOLUTE
    C:\Keil_v5\ARM\PACK\Keil\STM32F1xx_DFP\2.2.0\RTE_Driver\DMA_STM32F10x.c 0x00000000   Number         0  dma_stm32f10x.o ABSOLUTE
    C:\Keil_v5\ARM\PACK\Keil\STM32F1xx_DFP\2.2.0\RTE_Driver\EMAC_STM32F10x.c 0x00000000   Number         0  emac_stm32f10x.o ABSOLUTE
    C:\Keil_v5\ARM\PACK\Keil\STM32F1xx_DFP\2.2.0\RTE_Driver\GPIO_STM32F10x.c 0x00000000   Number         0  gpio_stm32f10x.o ABSOLUTE
    C:\Keil_v5\ARM\PACK\Keil\STM32F1xx_DFP\2.2.0\RTE_Driver\SPI_STM32F10x.c 0x00000000   Number         0  spi_stm32f10x.o ABSOLUTE
    C:\\Keil_v5\\ARM\\PACK\\Keil\\STM32F1xx_DFP\\2.2.0\\Boards\\Keil\\MCBSTM32C\\Common\\ADC_MCBSTM32C.c 0x00000000   Number         0  adc_mcbstm32c.o ABSOLUTE
    C:\\Keil_v5\\ARM\\PACK\\Keil\\STM32F1xx_DFP\\2.2.0\\Boards\\Keil\\MCBSTM32C\\Common\\GLCD_MCBSTM32C.c 0x00000000   Number         0  glcd_mcbstm32c.o ABSOLUTE
    C:\\Keil_v5\\ARM\\PACK\\Keil\\STM32F1xx_DFP\\2.2.0\\Boards\\Keil\\MCBSTM32C\\Common\\LED_MCBSTM32C.c 0x00000000   Number         0  led_mcbstm32c.o ABSOLUTE
    C:\\Keil_v5\\ARM\\PACK\\Keil\\STM32F1xx_DFP\\2.2.0\\RTE_Driver\\DMA_STM32F10x.c 0x00000000   Number         0  dma_stm32f10x.o ABSOLUTE
    C:\\Keil_v5\\ARM\\PACK\\Keil\\STM32F1xx_DFP\\2.2.0\\RTE_Driver\\EMAC_STM32F10x.c 0x00000000   Number         0  emac_stm32f10x.o ABSOLUTE
    C:\\Keil_v5\\ARM\\PACK\\Keil\\STM32F1xx_DFP\\2.2.0\\RTE_Driver\\GPIO_STM32F10x.c 0x00000000   Number         0  gpio_stm32f10x.o ABSOLUTE
    C:\\Keil_v5\\ARM\\PACK\\Keil\\STM32F1xx_DFP\\2.2.0\\RTE_Driver\\SPI_STM32F10x.c 0x00000000   Number         0  spi_stm32f10x.o ABSOLUTE
    HAL_CM3.c                                0x00000000   Number         0  hal_cm3.o ABSOLUTE
    HAL_CM3.c                                0x00000000   Number         0  hal_cm3.o ABSOLUTE
    RL_ARM.s                                 0x00000000   Number         0  net_mem.o ABSOLUTE
    RL_ARM.s                                 0x00000000   Number         0  net_sys.o ABSOLUTE
    RL_ARM.s                                 0x00000000   Number         0  net_tcp.o ABSOLUTE
    RL_ARM.s                                 0x00000000   Number         0  net_udp.o ABSOLUTE
    RL_ARM.s                                 0x00000000   Number         0  net_addr.o ABSOLUTE
    RL_ARM.s                                 0x00000000   Number         0  net_dhcp6_client.o ABSOLUTE
    RL_ARM.s                                 0x00000000   Number         0  net_icmp6.o ABSOLUTE
    RL_ARM.s                                 0x00000000   Number         0  net_ndp.o ABSOLUTE
    RL_ARM.s                                 0x00000000   Number         0  net_ip6.o ABSOLUTE
    RL_ARM.s                                 0x00000000   Number         0  net_loop.o ABSOLUTE
    RL_ARM.s                                 0x00000000   Number         0  net_arp.o ABSOLUTE
    RL_ARM.s                                 0x00000000   Number         0  net_nbns_client.o ABSOLUTE
    RL_ARM.s                                 0x00000000   Number         0  net_ping.o ABSOLUTE
    RL_ARM.s                                 0x00000000   Number         0  net_telnet_server.o ABSOLUTE
    RL_ARM.s                                 0x00000000   Number         0  net_eth.o ABSOLUTE
    RL_ARM.s                                 0x00000000   Number         0  net_icmp.o ABSOLUTE
    RL_ARM.s                                 0x00000000   Number         0  net_ip4.o ABSOLUTE
    RL_ARM.s                                 0x00000000   Number         0  net_version.o ABSOLUTE
    RL_ARM.s                                 0x00000000   Number         0  net_common.o ABSOLUTE
    RTE\CMSIS\RTX_Conf_CM.c                  0x00000000   Number         0  rtx_conf_cm.o ABSOLUTE
    RTE\Device\STM32F107VC\startup_stm32f10x_cl.s 0x00000000   Number         0  startup_stm32f10x_cl.o ABSOLUTE
    RTE\Device\STM32F107VC\system_stm32f10x.c 0x00000000   Number         0  system_stm32f10x.o ABSOLUTE
    RTE\Network\Net_Config.c                 0x00000000   Number         0  net_config.o ABSOLUTE
    RTE\\Device\\STM32F107VC\\system_stm32f10x.c 0x00000000   Number         0  system_stm32f10x.o ABSOLUTE
    SRC\\net_sys.c                           0x00000000   Number         0  net_sys.o ABSOLUTE
    SRC\\net_version.c                       0x00000000   Number         0  net_version.o ABSOLUTE
    SRC\net_addr.c                           0x00000000   Number         0  net_addr.o ABSOLUTE
    SRC\net_arp.c                            0x00000000   Number         0  net_arp.o ABSOLUTE
    SRC\net_common.c                         0x00000000   Number         0  net_common.o ABSOLUTE
    SRC\net_dhcp6_client.c                   0x00000000   Number         0  net_dhcp6_client.o ABSOLUTE
    SRC\net_eth.c                            0x00000000   Number         0  net_eth.o ABSOLUTE
    SRC\net_icmp.c                           0x00000000   Number         0  net_icmp.o ABSOLUTE
    SRC\net_icmp6.c                          0x00000000   Number         0  net_icmp6.o ABSOLUTE
    SRC\net_ip4.c                            0x00000000   Number         0  net_ip4.o ABSOLUTE
    SRC\net_ip6.c                            0x00000000   Number         0  net_ip6.o ABSOLUTE
    SRC\net_loop.c                           0x00000000   Number         0  net_loop.o ABSOLUTE
    SRC\net_mem.c                            0x00000000   Number         0  net_mem.o ABSOLUTE
    SRC\net_nbns_client.c                    0x00000000   Number         0  net_nbns_client.o ABSOLUTE
    SRC\net_ndp.c                            0x00000000   Number         0  net_ndp.o ABSOLUTE
    SRC\net_ping.c                           0x00000000   Number         0  net_ping.o ABSOLUTE
    SRC\net_sys.c                            0x00000000   Number         0  net_sys.o ABSOLUTE
    SRC\net_tcp.c                            0x00000000   Number         0  net_tcp.o ABSOLUTE
    SRC\net_telnet_server.c                  0x00000000   Number         0  net_telnet_server.o ABSOLUTE
    SRC\net_udp.c                            0x00000000   Number         0  net_udp.o ABSOLUTE
    SRC\net_version.c                        0x00000000   Number         0  net_version.o ABSOLUTE
    SVC_Table.s                              0x00000000   Number         0  svc_table.o ABSOLUTE
    Telnet_Server.c                          0x00000000   Number         0  telnet_server.o ABSOLUTE
    Telnet_Server_UIF.c                      0x00000000   Number         0  telnet_server_uif.o ABSOLUTE
    Timer.c                                  0x00000000   Number         0  timer.o ABSOLUTE
    Timer.c                                  0x00000000   Number         0  timer.o ABSOLUTE
    cdrcmple.s                               0x00000000   Number         0  cdrcmple.o ABSOLUTE
    dc.s                                     0x00000000   Number         0  dc.o ABSOLUTE
    handlers.s                               0x00000000   Number         0  handlers.o ABSOLUTE
    init.s                                   0x00000000   Number         0  init.o ABSOLUTE
    rtc.c                                    0x00000000   Number         0  rtc.o ABSOLUTE
    sntp.c                                   0x00000000   Number         0  sntp.o ABSOLUTE
    RESET                                    0x08000000   Section      336  startup_stm32f10x_cl.o(RESET)
    .ARM.Collect$$$$00000000                 0x08000150   Section        0  entry.o(.ARM.Collect$$$$00000000)
    .ARM.Collect$$$$00000001                 0x08000150   Section        4  entry2.o(.ARM.Collect$$$$00000001)
    .ARM.Collect$$$$00000004                 0x08000154   Section        4  entry5.o(.ARM.Collect$$$$00000004)
    .ARM.Collect$$$$00000008                 0x08000158   Section        0  entry7b.o(.ARM.Collect$$$$00000008)
    .ARM.Collect$$$$0000000A                 0x08000158   Section        0  entry8b.o(.ARM.Collect$$$$0000000A)
    .ARM.Collect$$$$0000000D                 0x08000158   Section        0  entry10a.o(.ARM.Collect$$$$0000000D)
    .ARM.Collect$$$$0000000F                 0x08000158   Section        0  entry11a.o(.ARM.Collect$$$$0000000F)
    .ARM.Collect$$$$000000FF                 0x08000158   Section        0  rtx_conf_cm.o(.ARM.Collect$$$$000000FF)
    .ARM.Collect$$$$00002712                 0x08000170   Section        4  entry2.o(.ARM.Collect$$$$00002712)
    __lit__00000000                          0x08000170   Data           4  entry2.o(.ARM.Collect$$$$00002712)
    .emb_text                                0x08000174   Section        8  net_sys.o(.emb_text)
    .emb_text                                0x0800017c   Section      304  hal_cm3.o(.emb_text)
    .text                                    0x080002ac   Section        0  telnet_server.o(.text)
    UpdateTimeDisplay                        0x080002cd   Thumb Code   146  telnet_server.o(.text)
    Display                                  0x0800035f   Thumb Code   238  telnet_server.o(.text)
    BlinkLed                                 0x0800044d   Thumb Code    48  telnet_server.o(.text)
    .text                                    0x080005a8   Section        0  telnet_server_uif.o(.text)
    .text                                    0x08000eac   Section        0  rtc.o(.text)
    .text                                    0x080012d4   Section        0  backlight.o(.text)
    .text                                    0x08001370   Section        0  timer.o(.text)
    .text                                    0x080013dc   Section        0  sntp.o(.text)
    .text                                    0x0800145c   Section        0  adc_mcbstm32c.o(.text)
    .text                                    0x08001554   Section        0  glcd_mcbstm32c.o(.text)
    spi_tran_man                             0x08001555   Thumb Code   128  glcd_mcbstm32c.o(.text)
    wr_cmd                                   0x080015d5   Thumb Code    56  glcd_mcbstm32c.o(.text)
    wr_reg                                   0x0800160d   Thumb Code   104  glcd_mcbstm32c.o(.text)
    rd_id_man                                0x08001675   Thumb Code    92  glcd_mcbstm32c.o(.text)
    GLCD_SetWindow                           0x080016d1   Thumb Code   146  glcd_mcbstm32c.o(.text)
    delay_ms                                 0x08002003   Thumb Code    34  glcd_mcbstm32c.o(.text)
    spi_tran                                 0x08002025   Thumb Code    30  glcd_mcbstm32c.o(.text)
    wr_dat_start                             0x08002043   Thumb Code    20  glcd_mcbstm32c.o(.text)
    wr_dat_stop                              0x08002057   Thumb Code    10  glcd_mcbstm32c.o(.text)
    wr_dat_only                              0x08002061   Thumb Code    32  glcd_mcbstm32c.o(.text)
    .text                                    0x08002090   Section        0  led_mcbstm32c.o(.text)
    .text                                    0x08002150   Section        0  rtx_conf_cm.o(.text)
    .text                                    0x08002154   Section        0  phy_dp83848c.o(.text)
    GetVersion                               0x08002155   Thumb Code     6  phy_dp83848c.o(.text)
    Initialize                               0x0800215b   Thumb Code    36  phy_dp83848c.o(.text)
    Uninitialize                             0x0800217f   Thumb Code    16  phy_dp83848c.o(.text)
    PowerControl                             0x0800218f   Thumb Code   136  phy_dp83848c.o(.text)
    SetInterface                             0x08002217   Thumb Code    40  phy_dp83848c.o(.text)
    SetMode                                  0x0800223f   Thumb Code    96  phy_dp83848c.o(.text)
    GetLinkState                             0x0800229f   Thumb Code    36  phy_dp83848c.o(.text)
    GetLinkInfo                              0x080022c3   Thumb Code    86  phy_dp83848c.o(.text)
    .text                                    0x08002320   Section        0  emac_stm32f10x.o(.text)
    GetVersion                               0x08002321   Thumb Code     6  emac_stm32f10x.o(.text)
    GetCapabilities                          0x08002327   Thumb Code     6  emac_stm32f10x.o(.text)
    Initialize                               0x0800232d   Thumb Code   140  emac_stm32f10x.o(.text)
    Uninitialize                             0x080023b9   Thumb Code    80  emac_stm32f10x.o(.text)
    PowerControl                             0x08002409   Thumb Code   370  emac_stm32f10x.o(.text)
    GetMacAddress                            0x0800257b   Thumb Code    52  emac_stm32f10x.o(.text)
    SetMacAddress                            0x080025af   Thumb Code    44  emac_stm32f10x.o(.text)
    SetAddressFilter                         0x080025db   Thumb Code   248  emac_stm32f10x.o(.text)
    SendFrame                                0x080026d3   Thumb Code   246  emac_stm32f10x.o(.text)
    ReadFrame                                0x080027c9   Thumb Code   124  emac_stm32f10x.o(.text)
    GetRxFrameSize                           0x08002845   Thumb Code    54  emac_stm32f10x.o(.text)
    GetRxFrameTime                           0x0800287b   Thumb Code     6  emac_stm32f10x.o(.text)
    GetTxFrameTime                           0x08002881   Thumb Code     6  emac_stm32f10x.o(.text)
    ControlTimer                             0x08002887   Thumb Code     6  emac_stm32f10x.o(.text)
    Control                                  0x0800288d   Thumb Code   238  emac_stm32f10x.o(.text)
    PHY_Read                                 0x0800297b   Thumb Code    78  emac_stm32f10x.o(.text)
    PHY_Write                                0x080029c9   Thumb Code    70  emac_stm32f10x.o(.text)
    .text                                    0x08002a5c   Section        0  spi_stm32f10x.o(.text)
    SPI_PeripheralReset                      0x08002a5d   Thumb Code    96  spi_stm32f10x.o(.text)
    SPIX_GetVersion                          0x08002abd   Thumb Code     6  spi_stm32f10x.o(.text)
    SPIX_GetCapabilities                     0x08002ac3   Thumb Code     6  spi_stm32f10x.o(.text)
    SPI_Initialize                           0x08002ac9   Thumb Code   134  spi_stm32f10x.o(.text)
    SPI_PowerControl                         0x08002b4f   Thumb Code   290  spi_stm32f10x.o(.text)
    SPI_Control                              0x08002c71   Thumb Code   784  spi_stm32f10x.o(.text)
    SPI3_Initialize                          0x080030e9   Thumb Code     4  spi_stm32f10x.o(.text)
    SPI3_Uninitialize                        0x080030ed   Thumb Code     6  spi_stm32f10x.o(.text)
    SPI3_PowerControl                        0x080030f3   Thumb Code     4  spi_stm32f10x.o(.text)
    SPI3_Send                                0x080030f7   Thumb Code     6  spi_stm32f10x.o(.text)
    SPI3_Receive                             0x080030fd   Thumb Code     6  spi_stm32f10x.o(.text)
    SPI3_Transfer                            0x08003103   Thumb Code     6  spi_stm32f10x.o(.text)
    SPI3_GetDataCount                        0x08003109   Thumb Code     6  spi_stm32f10x.o(.text)
    SPI3_Control                             0x0800310f   Thumb Code     4  spi_stm32f10x.o(.text)
    SPI3_GetStatus                           0x08003113   Thumb Code    72  spi_stm32f10x.o(.text)
    SPI_Uninitialize                         0x0800315f   Thumb Code    72  spi_stm32f10x.o(.text)
    SPI_Send                                 0x080031a7   Thumb Code   114  spi_stm32f10x.o(.text)
    SPI_Receive                              0x08003219   Thumb Code   140  spi_stm32f10x.o(.text)
    SPI_Transfer                             0x080032a5   Thumb Code    94  spi_stm32f10x.o(.text)
    .text                                    0x08003304   Section        0  dma_stm32f10x.o(.text)
    __NVIC_EnableIRQ                         0x08003667   Thumb Code    26  dma_stm32f10x.o(.text)
    __NVIC_DisableIRQ                        0x08003681   Thumb Code    34  dma_stm32f10x.o(.text)
    __NVIC_ClearPendingIRQ                   0x080036a3   Thumb Code    26  dma_stm32f10x.o(.text)
    .text                                    0x080036cc   Section        0  gpio_stm32f10x.o(.text)
    .text                                    0x080038c8   Section       36  startup_stm32f10x_cl.o(.text)
    .text                                    0x080038ec   Section        0  system_stm32f10x.o(.text)
    SetSysClockTo72                          0x080038ed   Thumb Code   190  system_stm32f10x.o(.text)
    .text                                    0x08003ab0   Section        0  net_config.o(.text)
    .text                                    0x08003b68   Section        0  uldiv.o(.text)
    .text                                    0x08003bca   Section        0  memmovea.o(.text)
    .text                                    0x08003c0a   Section        0  memseta.o(.text)
    .text                                    0x08003c2e   Section        0  strlen.o(.text)
    .text                                    0x08003c3c   Section        0  strcmp.o(.text)
    .text                                    0x08003c58   Section        0  memcmp.o(.text)
    .text                                    0x08003c74   Section        0  __0sscanf.o(.text)
    .text                                    0x08003cac   Section        0  _scanf_int.o(.text)
    .text                                    0x08003df8   Section        0  llshl.o(.text)
    .text                                    0x08003e16   Section        0  llushr.o(.text)
    .text                                    0x08003e36   Section        0  _chval.o(.text)
    .text                                    0x08003e54   Section        0  scanf_char.o(.text)
    _scanf_char_input                        0x08003e55   Thumb Code    12  scanf_char.o(.text)
    .text                                    0x08003e7c   Section        0  _sgetc.o(.text)
    .text                                    0x08003ebc   Section       36  init.o(.text)
    .text                                    0x08003ee0   Section        0  isspace_c.o(.text)
    .text                                    0x08003ee0   Section        0  semi.o(.text)
    .text                                    0x08003eec   Section        0  _scanf.o(.text)
    .text                                    0x08004218   Section        0  iusesemip.o(.text)
    .text                                    0x08004218   Section        0  ctype_c.o(.text)
    SVC_TABLE                                0x08004240   Section        4  svc_table.o(SVC_TABLE)
    i.__0printf$8                            0x08004244   Section        0  printf8.o(i.__0printf$8)
    i.__0sprintf$8                           0x08004264   Section        0  printf8.o(i.__0sprintf$8)
    i.__scatterload_copy                     0x0800428c   Section       14  handlers.o(i.__scatterload_copy)
    i.__scatterload_null                     0x0800429a   Section        2  handlers.o(i.__scatterload_null)
    i.__scatterload_zeroinit                 0x0800429c   Section       14  handlers.o(i.__scatterload_zeroinit)
    i._init_box                              0x080042aa   Section        0  rt_membox.o(i._init_box)
    i._printf_core                           0x080042f0   Section        0  printf8.o(i._printf_core)
    _printf_core                             0x080042f1   Thumb Code   996  printf8.o(i._printf_core)
    i._printf_post_padding                   0x08004700   Section        0  printf8.o(i._printf_post_padding)
    _printf_post_padding                     0x08004701   Thumb Code    36  printf8.o(i._printf_post_padding)
    i._printf_pre_padding                    0x08004724   Section        0  printf8.o(i._printf_pre_padding)
    _printf_pre_padding                      0x08004725   Thumb Code    46  printf8.o(i._printf_pre_padding)
    i._sputc                                 0x08004752   Section        0  printf8.o(i._sputc)
    _sputc                                   0x08004753   Thumb Code    10  printf8.o(i._sputc)
    i.arp_cache_alloc                        0x0800475c   Section        0  net_arp.o(i.arp_cache_alloc)
    arp_cache_alloc                          0x0800475d   Thumb Code   148  net_arp.o(i.arp_cache_alloc)
    i.arp_is_cacheable                       0x080047f4   Section        0  net_arp.o(i.arp_is_cacheable)
    arp_is_cacheable                         0x080047f5   Thumb Code    60  net_arp.o(i.arp_is_cacheable)
    i.arp_probe_run                          0x08004834   Section        0  net_arp.o(i.arp_probe_run)
    arp_probe_run                            0x08004835   Thumb Code    58  net_arp.o(i.arp_probe_run)
    i.arp_proc_response                      0x08004874   Section        0  net_arp.o(i.arp_proc_response)
    arp_proc_response                        0x08004875   Thumb Code   122  net_arp.o(i.arp_proc_response)
    i.arp_send_reply                         0x080048f4   Section        0  net_arp.o(i.arp_send_reply)
    arp_send_reply                           0x080048f5   Thumb Code   130  net_arp.o(i.arp_send_reply)
    i.arp_send_request                       0x08004980   Section        0  net_arp.o(i.arp_send_request)
    arp_send_request                         0x08004981   Thumb Code   170  net_arp.o(i.arp_send_request)
    i.check_client_id                        0x08004a38   Section        0  net_dhcp6_client.o(i.check_client_id)
    check_client_id                          0x08004a39   Thumb Code   104  net_dhcp6_client.o(i.check_client_id)
    i.crc32_8bit                             0x08004aa8   Section        0  net_common.o(i.crc32_8bit)
    crc32_8bit                               0x08004aa9   Thumb Code    34  net_common.o(i.crc32_8bit)
    i.dbg_init                               0x08004ad0   Section        0  hal_cm.o(i.dbg_init)
    i.dbg_task_notify                        0x08004b00   Section        0  hal_cm.o(i.dbg_task_notify)
    i.dbg_task_switch                        0x08004b20   Section        0  hal_cm.o(i.dbg_task_switch)
    i.dhcp6_client_start                     0x08004b30   Section        0  net_dhcp6_client.o(i.dhcp6_client_start)
    dhcp6_client_start                       0x08004b31   Thumb Code    46  net_dhcp6_client.o(i.dhcp6_client_start)
    i.dhcp6_listener                         0x08004b6c   Section        0  net_dhcp6_client.o(i.dhcp6_listener)
    dhcp6_listener                           0x08004b6d   Thumb Code   736  net_dhcp6_client.o(i.dhcp6_listener)
    i.dhcp6_send_message                     0x08004e58   Section        0  net_dhcp6_client.o(i.dhcp6_send_message)
    dhcp6_send_message                       0x08004e59   Thumb Code   454  net_dhcp6_client.o(i.dhcp6_send_message)
    i.eth_check_link                         0x08005034   Section        0  net_eth.o(i.eth_check_link)
    eth_check_link                           0x08005035   Thumb Code   184  net_eth.o(i.eth_check_link)
    i.eth_lock                               0x080050f8   Section        0  net_eth.o(i.eth_lock)
    eth_lock                                 0x080050f9   Thumb Code     8  net_eth.o(i.eth_lock)
    i.eth_make_mcast4                        0x08005104   Section        0  net_eth.o(i.eth_make_mcast4)
    eth_make_mcast4                          0x08005105   Thumb Code    30  net_eth.o(i.eth_make_mcast4)
    i.eth_make_mcast6                        0x08005122   Section        0  net_eth.o(i.eth_make_mcast6)
    eth_make_mcast6                          0x08005123   Thumb Code    26  net_eth.o(i.eth_make_mcast6)
    i.eth_mtu_limit                          0x0800513c   Section        0  net_eth.o(i.eth_mtu_limit)
    eth_mtu_limit                            0x0800513d   Thumb Code    28  net_eth.o(i.eth_mtu_limit)
    i.eth_notify                             0x08005158   Section        0  net_eth.o(i.eth_notify)
    eth_notify                               0x08005159   Thumb Code    16  net_eth.o(i.eth_notify)
    i.eth_opt_len                            0x0800516c   Section        0  net_eth.o(i.eth_opt_len)
    eth_opt_len                              0x0800516d   Thumb Code    62  net_eth.o(i.eth_opt_len)
    i.eth_receive                            0x080051b0   Section        0  net_eth.o(i.eth_receive)
    eth_receive                              0x080051b1   Thumb Code   128  net_eth.o(i.eth_receive)
    i.eth_unlock                             0x08005238   Section        0  net_eth.o(i.eth_unlock)
    eth_unlock                               0x08005239   Thumb Code     8  net_eth.o(i.eth_unlock)
    i.fputc                                  0x08005244   Section        0  fputc.o(i.fputc)
    i.get_hist                               0x08005256   Section        0  net_telnet_server.o(i.get_hist)
    get_hist                                 0x08005257   Thumb Code   110  net_telnet_server.o(i.get_hist)
    i.get_tout                               0x080052c4   Section        0  net_dhcp6_client.o(i.get_tout)
    get_tout                                 0x080052c5   Thumb Code    92  net_dhcp6_client.o(i.get_tout)
    i.ip4_get_chksum                         0x08005320   Section        0  net_ip4.o(i.ip4_get_chksum)
    ip4_get_chksum                           0x08005321   Thumb Code    10  net_ip4.o(i.ip4_get_chksum)
    i.ip4_get_mtu                            0x0800532c   Section        0  net_ip4.o(i.ip4_get_mtu)
    ip4_get_mtu                              0x0800532d   Thumb Code    24  net_ip4.o(i.ip4_get_mtu)
    i.ip4_get_route                          0x08005348   Section        0  net_ip4.o(i.ip4_get_route)
    ip4_get_route                            0x08005349   Thumb Code   112  net_ip4.o(i.ip4_get_route)
    i.ip4_ntoa                               0x080053c8   Section        0  net_addr.o(i.ip4_ntoa)
    ip4_ntoa                                 0x080053c9   Thumb Code    34  net_addr.o(i.ip4_ntoa)
    i.ip6_get_route                          0x080053fc   Section        0  net_ip6.o(i.ip6_get_route)
    ip6_get_route                            0x080053fd   Thumb Code    44  net_ip6.o(i.ip6_get_route)
    i.ip6_ntoa                               0x08005434   Section        0  net_addr.o(i.ip6_ntoa)
    ip6_ntoa                                 0x08005435   Thumb Code   202  net_addr.o(i.ip6_ntoa)
    i.isrMessageGet                          0x08005508   Section        0  rt_cmsis.o(i.isrMessageGet)
    i.isrMessagePut                          0x08005532   Section        0  rt_cmsis.o(i.isrMessagePut)
    i.isrSemaphoreRelease                    0x0800555e   Section        0  rt_cmsis.o(i.isrSemaphoreRelease)
    i.isrSignalSet                           0x08005586   Section        0  rt_cmsis.o(i.isrSignalSet)
    i.isr_evt_set                            0x080055ac   Section        0  rt_event.o(i.isr_evt_set)
    i.isr_mbx_receive                        0x080055d4   Section        0  rt_mailbox.o(i.isr_mbx_receive)
    i.isr_mbx_send                           0x0800562a   Section        0  rt_mailbox.o(i.isr_mbx_send)
    i.isr_sem_send                           0x08005638   Section        0  rt_semaphore.o(i.isr_sem_send)
    i.mem_lock                               0x08005648   Section        0  net_mem.o(i.mem_lock)
    mem_lock                                 0x08005649   Thumb Code     8  net_mem.o(i.mem_lock)
    i.mem_unlock                             0x08005654   Section        0  net_mem.o(i.mem_unlock)
    mem_unlock                               0x08005655   Thumb Code     8  net_mem.o(i.mem_unlock)
    i.nbns_listener                          0x08005660   Section        0  net_nbns_client.o(i.nbns_listener)
    nbns_listener                            0x08005661   Thumb Code   336  net_nbns_client.o(i.nbns_listener)
    i.ndp_cache_add                          0x080057c0   Section        0  net_ndp.o(i.ndp_cache_add)
    ndp_cache_add                            0x080057c1   Thumb Code   142  net_ndp.o(i.ndp_cache_add)
    i.ndp_cache_alloc                        0x0800585c   Section        0  net_ndp.o(i.ndp_cache_alloc)
    ndp_cache_alloc                          0x0800585d   Thumb Code   126  net_ndp.o(i.ndp_cache_alloc)
    i.ndp_check_frame                        0x080058e0   Section        0  net_ndp.o(i.ndp_check_frame)
    ndp_check_frame                          0x080058e1   Thumb Code    44  net_ndp.o(i.ndp_check_frame)
    i.ndp_is_onlink                          0x0800590c   Section        0  net_ndp.o(i.ndp_is_onlink)
    ndp_is_onlink                            0x0800590d   Thumb Code    84  net_ndp.o(i.ndp_is_onlink)
    i.ndp_next_opt                           0x08005968   Section        0  net_ndp.o(i.ndp_next_opt)
    ndp_next_opt                             0x08005969   Thumb Code    18  net_ndp.o(i.ndp_next_opt)
    i.ndp_prefix_add                         0x0800597c   Section        0  net_ndp.o(i.ndp_prefix_add)
    ndp_prefix_add                           0x0800597d   Thumb Code   172  net_ndp.o(i.ndp_prefix_add)
    i.ndp_probe_run                          0x08005a34   Section        0  net_ndp.o(i.ndp_probe_run)
    ndp_probe_run                            0x08005a35   Thumb Code    58  net_ndp.o(i.ndp_probe_run)
    i.ndp_proc_response                      0x08005a74   Section        0  net_ndp.o(i.ndp_proc_response)
    ndp_proc_response                        0x08005a75   Thumb Code   118  net_ndp.o(i.ndp_proc_response)
    i.ndp_router_remove                      0x08005af0   Section        0  net_ndp.o(i.ndp_router_remove)
    ndp_router_remove                        0x08005af1   Thumb Code    48  net_ndp.o(i.ndp_router_remove)
    i.ndp_send_reply                         0x08005b2c   Section        0  net_ndp.o(i.ndp_send_reply)
    ndp_send_reply                           0x08005b2d   Thumb Code   100  net_ndp.o(i.ndp_send_reply)
    i.ndp_send_request                       0x08005b98   Section        0  net_ndp.o(i.ndp_send_request)
    ndp_send_request                         0x08005b99   Thumb Code   122  net_ndp.o(i.ndp_send_request)
    i.ndp_slaac_run                          0x08005c1c   Section        0  net_ndp.o(i.ndp_slaac_run)
    ndp_slaac_run                            0x08005c1d   Thumb Code   226  net_ndp.o(i.ndp_slaac_run)
    i.netCore_Thread                         0x08005d18   Section        0  net_sys.o(i.netCore_Thread)
    i.netDHCP6_Notify                        0x08005d70   Section        0  net_dhcp6_client.o(i.netDHCP6_Notify)
    i.netETH_Notify                          0x08005d72   Section        0  net_eth.o(i.netETH_Notify)
    i.netETH_ReceiveRaw                      0x08005d74   Section        0  net_eth.o(i.netETH_ReceiveRaw)
    i.netETH_Thread                          0x08005d78   Section        0  net_eth.o(i.netETH_Thread)
    i.netIF_GetOption                        0x08005db4   Section        0  net_sys.o(i.netIF_GetOption)
    i.netIP_ntoa                             0x08005e1c   Section        0  net_addr.o(i.netIP_ntoa)
    i.netInitialize                          0x08005e50   Section        0  net_sys.o(i.netInitialize)
    i.netMAC_aton                            0x08005ec8   Section        0  net_addr.o(i.netMAC_aton)
    i.netTCP_GetLocalPort                    0x08005f44   Section        0  net_tcp.o(i.netTCP_GetLocalPort)
    i.netTCP_GetPeer                         0x08005f48   Section        0  net_tcp.o(i.netTCP_GetPeer)
    i.netTCP_GetState                        0x08005f68   Section        0  net_tcp.o(i.netTCP_GetState)
    i.netTCP_GetTimer                        0x08005f6c   Section        0  net_tcp.o(i.netTCP_GetTimer)
    i.netTELNETs_AcceptClient                0x08005f70   Section        0  net_telnet_server.o(i.netTELNETs_AcceptClient)
    i.netTELNETs_CheckCommand                0x08005f74   Section        0  net_telnet_server.o(i.netTELNETs_CheckCommand)
    i.netTELNETs_CheckPassword               0x08005fa2   Section        0  net_telnet_server.o(i.netTELNETs_CheckPassword)
    i.netTELNETs_CheckUsername               0x08005fa6   Section        0  net_telnet_server.o(i.netTELNETs_CheckUsername)
    i.netTELNETs_GetClient                   0x08005fac   Section        0  net_telnet_server.o(i.netTELNETs_GetClient)
    i.netTELNETs_GetPassword                 0x08005fdc   Section        0  net_telnet_server.o(i.netTELNETs_GetPassword)
    i.netTELNETs_LoginActive                 0x08005fe8   Section        0  net_telnet_server.o(i.netTELNETs_LoginActive)
    i.netTELNETs_RepeatCommand               0x08005ff4   Section        0  net_telnet_server.o(i.netTELNETs_RepeatCommand)
    i.netTELNETs_SetPassword                 0x0800603c   Section        0  net_telnet_server.o(i.netTELNETs_SetPassword)
    i.netUDP_GetBuffer                       0x08006074   Section        0  net_udp.o(i.netUDP_GetBuffer)
    i.netUDP_GetSocket                       0x08006078   Section        0  net_udp.o(i.netUDP_GetSocket)
    i.netUDP_Open                            0x08006090   Section        0  net_udp.o(i.netUDP_Open)
    i.netUDP_Send                            0x080060ac   Section        0  net_udp.o(i.netUDP_Send)
    i.net_addr4_aton                         0x080060d4   Section        0  net_addr.o(i.net_addr4_aton)
    i.net_addr4_is_subnet                    0x0800613c   Section        0  net_addr.o(i.net_addr4_is_subnet)
    i.net_addr6_aton                         0x08006158   Section        0  net_addr.o(i.net_addr6_aton)
    i.net_addr6_comp                         0x0800624c   Section        0  net_addr.o(i.net_addr6_comp)
    i.net_addr6_copy                         0x08006274   Section        0  net_addr.o(i.net_addr6_copy)
    i.net_addr6_create                       0x08006288   Section        0  net_addr.o(i.net_addr6_create)
    i.net_addr6_get_solicited                0x080062d4   Section        0  net_addr.o(i.net_addr6_get_solicited)
    i.net_addr6_is_linklocal                 0x08006300   Section        0  net_addr.o(i.net_addr6_is_linklocal)
    i.net_addr6_is_onlink                    0x08006318   Section        0  net_addr.o(i.net_addr6_is_onlink)
    i.net_addr6_is_solicited                 0x08006384   Section        0  net_addr.o(i.net_addr6_is_solicited)
    i.net_addr6_is_unspec                    0x080063cc   Section        0  net_addr.o(i.net_addr6_is_unspec)
    i.net_addr_copy                          0x080063e4   Section        0  net_addr.o(i.net_addr_copy)
    i.net_addr_get_local                     0x080063fe   Section        0  net_addr.o(i.net_addr_get_local)
    i.net_addr_is_unspec                     0x0800640c   Section        0  net_addr.o(i.net_addr_is_unspec)
    i.net_arp_cache_add                      0x08006430   Section        0  net_arp.o(i.net_arp_cache_add)
    i.net_arp_cache_early                    0x080064e0   Section        0  net_arp.o(i.net_arp_cache_early)
    i.net_arp_cache_find                     0x08006578   Section        0  net_arp.o(i.net_arp_cache_find)
    i.net_arp_init                           0x0800662c   Section        0  net_arp.o(i.net_arp_init)
    i.net_arp_notify                         0x08006664   Section        0  net_arp.o(i.net_arp_notify)
    i.net_arp_process                        0x08006694   Section        0  net_arp.o(i.net_arp_process)
    i.net_arp_run                            0x080067dc   Section        0  net_arp.o(i.net_arp_run)
    i.net_crc32_buf                          0x080068d8   Section        0  net_common.o(i.net_crc32_buf)
    i.net_dhcp6_client_init                  0x080068f0   Section        0  net_dhcp6_client.o(i.net_dhcp6_client_init)
    i.net_dhcp6_client_run                   0x08006944   Section        0  net_dhcp6_client.o(i.net_dhcp6_client_run)
    i.net_eth_get_option                     0x08006b48   Section        0  net_eth.o(i.net_eth_get_option)
    i.net_eth_iface_init                     0x08006c10   Section        0  net_eth.o(i.net_eth_iface_init)
    i.net_eth_iface_run                      0x08006e30   Section        0  net_eth.o(i.net_eth_iface_run)
    i.net_eth_is_my_addr                     0x08006fc4   Section        0  net_eth.o(i.net_eth_is_my_addr)
    i.net_eth_output                         0x08006fe4   Section        0  net_eth.o(i.net_eth_output)
    i.net_eth_send_frame                     0x08007020   Section        0  net_eth.o(i.net_eth_send_frame)
    i.net_eth_update_filter                  0x080070fc   Section        0  net_eth.o(i.net_eth_update_filter)
    i.net_icmp6_process                      0x08007204   Section        0  net_icmp6.o(i.net_icmp6_process)
    i.net_icmp6_send                         0x08007334   Section        0  net_icmp6.o(i.net_icmp6_send)
    i.net_icmp6_send_echo                    0x08007390   Section        0  net_icmp6.o(i.net_icmp6_send_echo)
    i.net_icmp_process                       0x080073e0   Section        0  net_icmp.o(i.net_icmp_process)
    i.net_icmp_send_echo                     0x080074d4   Section        0  net_icmp.o(i.net_icmp_send_echo)
    i.net_ip4_checksum                       0x08007554   Section        0  net_ip4.o(i.net_ip4_checksum)
    i.net_ip4_chk_frame                      0x080075a0   Section        0  net_ip4.o(i.net_ip4_chk_frame)
    i.net_ip4_chksum_buf                     0x08007674   Section        0  net_ip4.o(i.net_ip4_chksum_buf)
    i.net_ip4_get_local                      0x080076a8   Section        0  net_ip4.o(i.net_ip4_get_local)
    i.net_ip4_init                           0x080076ec   Section        0  net_ip4.o(i.net_ip4_init)
    i.net_ip4_is_subcast                     0x08007730   Section        0  net_ip4.o(i.net_ip4_is_subcast)
    i.net_ip4_reass_frame                    0x0800775c   Section        0  net_ip4.o(i.net_ip4_reass_frame)
    i.net_ip4_send_frame                     0x0800776c   Section        0  net_ip4.o(i.net_ip4_send_frame)
    i.net_ip4_tx_offload                     0x080078ac   Section        0  net_ip4.o(i.net_ip4_tx_offload)
    i.net_ip6_checksum                       0x08007904   Section        0  net_ip6.o(i.net_ip6_checksum)
    i.net_ip6_chk_frame                      0x08007958   Section        0  net_ip6.o(i.net_ip6_chk_frame)
    i.net_ip6_get_local                      0x080079fc   Section        0  net_ip6.o(i.net_ip6_get_local)
    i.net_ip6_init                           0x08007a58   Section        0  net_ip6.o(i.net_ip6_init)
    i.net_ip6_send_frame                     0x08007a8c   Section        0  net_ip6.o(i.net_ip6_send_frame)
    i.net_ip6_tx_netif                       0x08007b40   Section        0  net_ip6.o(i.net_ip6_tx_netif)
    i.net_ip6_tx_offload                     0x08007b4c   Section        0  net_ip6.o(i.net_ip6_tx_offload)
    i.net_loop_iface_init                    0x08007b7c   Section        0  net_loop.o(i.net_loop_iface_init)
    i.net_loop_iface_run                     0x08007ba4   Section        0  net_loop.o(i.net_loop_iface_run)
    i.net_loop_send_frame                    0x08007c38   Section        0  net_loop.o(i.net_loop_send_frame)
    i.net_mem_alloc                          0x08007c80   Section        0  net_mem.o(i.net_mem_alloc)
    i.net_mem_avail                          0x08007d0c   Section        0  net_mem.o(i.net_mem_avail)
    i.net_mem_free                           0x08007d28   Section        0  net_mem.o(i.net_mem_free)
    i.net_mem_init                           0x08007d94   Section        0  net_mem.o(i.net_mem_init)
    i.net_mem_shrink                         0x08007df4   Section        0  net_mem.o(i.net_mem_shrink)
    i.net_nbns_client_init                   0x08007e2c   Section        0  net_nbns_client.o(i.net_nbns_client_init)
    i.net_ndp_cache_find                     0x08007e58   Section        0  net_ndp.o(i.net_ndp_cache_find)
    i.net_ndp_cache_refresh                  0x08007eec   Section        0  net_ndp.o(i.net_ndp_cache_refresh)
    i.net_ndp_init                           0x08007f40   Section        0  net_ndp.o(i.net_ndp_init)
    i.net_ndp_process                        0x08007f90   Section        0  net_ndp.o(i.net_ndp_process)
    i.net_ndp_run                            0x080081bc   Section        0  net_ndp.o(i.net_ndp_run)
    i.net_ping_client_init                   0x0800828c   Section        0  net_ping.o(i.net_ping_client_init)
    i.net_ping_client_run                    0x0800829c   Section        0  net_ping.o(i.net_ping_client_run)
    i.net_rand32                             0x080082dc   Section        0  net_sys.o(i.net_rand32)
    i.net_strcpy                             0x080082f8   Section        0  net_common.o(i.net_strcpy)
    i.net_strtoupper                         0x0800830a   Section        0  net_common.o(i.net_strtoupper)
    i.net_sys_lock                           0x08008328   Section        0  net_sys.o(i.net_sys_lock)
    i.net_sys_tick                           0x08008334   Section        0  net_sys.o(i.net_sys_tick)
    i.net_sys_unlock                         0x08008348   Section        0  net_sys.o(i.net_sys_unlock)
    i.net_sys_wakeup                         0x08008354   Section        0  net_sys.o(i.net_sys_wakeup)
    i.net_tcp_close                          0x08008374   Section        0  net_tcp.o(i.net_tcp_close)
    i.net_tcp_get_buf                        0x08008420   Section        0  net_tcp.o(i.net_tcp_get_buf)
    i.net_tcp_get_local_port                 0x08008440   Section        0  net_tcp.o(i.net_tcp_get_local_port)
    i.net_tcp_get_mss                        0x08008474   Section        0  net_tcp.o(i.net_tcp_get_mss)
    i.net_tcp_get_peer                       0x0800849c   Section        0  net_tcp.o(i.net_tcp_get_peer)
    i.net_tcp_get_socket                     0x080084f0   Section        0  net_tcp.o(i.net_tcp_get_socket)
    i.net_tcp_get_state                      0x0800853c   Section        0  net_tcp.o(i.net_tcp_get_state)
    i.net_tcp_get_timer                      0x08008568   Section        0  net_tcp.o(i.net_tcp_get_timer)
    i.net_tcp_listen                         0x0800859c   Section        0  net_tcp.o(i.net_tcp_listen)
    i.net_tcp_ntoa                           0x08008618   Section        0  net_tcp.o(i.net_tcp_ntoa)
    i.net_tcp_process                        0x08008624   Section        0  net_tcp.o(i.net_tcp_process)
    i.net_tcp_send                           0x08008b34   Section        0  net_tcp.o(i.net_tcp_send)
    i.net_tcp_set_option                     0x08008c1c   Section        0  net_tcp.o(i.net_tcp_set_option)
    i.net_tcp_socket_init                    0x08008cc0   Section        0  net_tcp.o(i.net_tcp_socket_init)
    i.net_tcp_socket_run                     0x08008cd4   Section        0  net_tcp.o(i.net_tcp_socket_run)
    i.net_telnet_server_init                 0x08008fcc   Section        0  net_telnet_server.o(i.net_telnet_server_init)
    i.net_telnet_server_run                  0x0800906c   Section        0  net_telnet_server.o(i.net_telnet_server_run)
    i.net_udp_get_buf                        0x08009080   Section        0  net_udp.o(i.net_udp_get_buf)
    i.net_udp_get_socket                     0x080090a0   Section        0  net_udp.o(i.net_udp_get_socket)
    i.net_udp_open                           0x080090ec   Section        0  net_udp.o(i.net_udp_open)
    i.net_udp_process                        0x08009158   Section        0  net_udp.o(i.net_udp_process)
    i.net_udp_send                           0x0800923c   Section        0  net_udp.o(i.net_udp_send)
    i.net_udp_socket_init                    0x080093b4   Section        0  net_udp.o(i.net_udp_socket_init)
    i.osDelay                                0x080093c8   Section        0  rt_cmsis.o(i.osDelay)
    i.osKernelInitialize                     0x080093e0   Section        0  rt_cmsis.o(i.osKernelInitialize)
    i.osKernelStart                          0x08009404   Section        0  rt_cmsis.o(i.osKernelStart)
    i.osMessageGet                           0x08009470   Section        0  rt_cmsis.o(i.osMessageGet)
    i.osMutexCreate                          0x08009488   Section        0  rt_cmsis.o(i.osMutexCreate)
    i.osMutexRelease                         0x080094b4   Section        0  rt_cmsis.o(i.osMutexRelease)
    i.osMutexWait                            0x080094cc   Section        0  rt_cmsis.o(i.osMutexWait)
    i.osSemaphoreCreate                      0x080094e4   Section        0  rt_cmsis.o(i.osSemaphoreCreate)
    i.osSemaphoreRelease                     0x08009510   Section        0  rt_cmsis.o(i.osSemaphoreRelease)
    i.osSemaphoreWait                        0x08009528   Section        0  rt_cmsis.o(i.osSemaphoreWait)
    i.osSignalClear                          0x08009540   Section        0  rt_cmsis.o(i.osSignalClear)
    i.osSignalSet                            0x08009558   Section        0  rt_cmsis.o(i.osSignalSet)
    i.osSignalWait                           0x08009570   Section        0  rt_cmsis.o(i.osSignalWait)
    i.osThreadCreate                         0x08009588   Section        0  rt_cmsis.o(i.osThreadCreate)
    i.osThreadExit                           0x080095b4   Section        0  rt_cmsis.o(i.osThreadExit)
    i.osThreadGetId                          0x080095cc   Section        0  rt_cmsis.o(i.osThreadGetId)
    i.osThreadYield                          0x080095e4   Section        0  rt_cmsis.o(i.osThreadYield)
    i.osTimerCall                            0x080095fc   Section        0  rt_cmsis.o(i.osTimerCall)
    i.osTimerCreate                          0x08009608   Section        0  rt_cmsis.o(i.osTimerCreate)
    i.osTimerStart                           0x08009634   Section        0  rt_cmsis.o(i.osTimerStart)
    i.osTimerThread                          0x0800964c   Section        0  rt_cmsis.o(i.osTimerThread)
    i.os_tick_init                           0x08009678   Section        0  rt_system.o(i.os_tick_init)
    i.os_tick_irqack                         0x080096a0   Section        0  rt_system.o(i.os_tick_irqack)
    i.ping_send_req                          0x080096a4   Section        0  net_ping.o(i.ping_send_req)
    ping_send_req                            0x080096a5   Thumb Code    22  net_ping.o(i.ping_send_req)
    i.proc_data                              0x080096c0   Section        0  net_telnet_server.o(i.proc_data)
    proc_data                                0x080096c1   Thumb Code   140  net_telnet_server.o(i.proc_data)
    i.proc_opt_ia_na                         0x0800974c   Section        0  net_dhcp6_client.o(i.proc_opt_ia_na)
    proc_opt_ia_na                           0x0800974d   Thumb Code   180  net_dhcp6_client.o(i.proc_opt_ia_na)
    i.rt_alloc_box                           0x08009808   Section        0  rt_membox.o(i.rt_alloc_box)
    i.rt_alloc_mem                           0x08009822   Section        0  rt_memory.o(i.rt_alloc_mem)
    i.rt_block                               0x08009860   Section        0  rt_task.o(i.rt_block)
    i.rt_chk_robin                           0x08009898   Section        0  rt_robin.o(i.rt_chk_robin)
    i.rt_dec_dly                             0x080098e0   Section        0  rt_list.o(i.rt_dec_dly)
    i.rt_dispatch                            0x08009950   Section        0  rt_task.o(i.rt_dispatch)
    i.rt_dly_wait                            0x08009994   Section        0  rt_time.o(i.rt_dly_wait)
    i.rt_evt_clr                             0x0800999c   Section        0  rt_event.o(i.rt_evt_clr)
    i.rt_evt_psh                             0x080099b8   Section        0  rt_event.o(i.rt_evt_psh)
    i.rt_evt_set                             0x08009a08   Section        0  rt_event.o(i.rt_evt_set)
    i.rt_evt_wait                            0x08009a64   Section        0  rt_event.o(i.rt_evt_wait)
    i.rt_free_box                            0x08009aa0   Section        0  rt_membox.o(i.rt_free_box)
    i.rt_free_mem                            0x08009acc   Section        0  rt_memory.o(i.rt_free_mem)
    i.rt_get_first                           0x08009af4   Section        0  rt_list.o(i.rt_get_first)
    i.rt_get_same_rdy_prio                   0x08009b1c   Section        0  rt_list.o(i.rt_get_same_rdy_prio)
    i.rt_id2obj                              0x08009b40   Section        0  rt_cmsis.o(i.rt_id2obj)
    rt_id2obj                                0x08009b41   Thumb Code     8  rt_cmsis.o(i.rt_id2obj)
    i.rt_init_context                        0x08009b48   Section        0  rt_task.o(i.rt_init_context)
    rt_init_context                          0x08009b49   Thumb Code    66  rt_task.o(i.rt_init_context)
    i.rt_init_mem                            0x08009b90   Section        0  rt_memory.o(i.rt_init_mem)
    i.rt_init_robin                          0x08009bac   Section        0  rt_robin.o(i.rt_init_robin)
    i.rt_init_stack                          0x08009bc4   Section        0  hal_cm.o(i.rt_init_stack)
    i.rt_mbx_check                           0x08009c44   Section        0  rt_mailbox.o(i.rt_mbx_check)
    i.rt_mbx_init                            0x08009c4c   Section        0  rt_mailbox.o(i.rt_mbx_init)
    i.rt_mbx_psh                             0x08009c68   Section        0  rt_mailbox.o(i.rt_mbx_psh)
    i.rt_mbx_wait                            0x08009d58   Section        0  rt_mailbox.o(i.rt_mbx_wait)
    i.rt_ms2tick                             0x08009e0c   Section        0  rt_cmsis.o(i.rt_ms2tick)
    rt_ms2tick                               0x08009e0d   Thumb Code    58  rt_cmsis.o(i.rt_ms2tick)
    i.rt_mut_init                            0x08009e50   Section        0  rt_mutex.o(i.rt_mut_init)
    i.rt_mut_release                         0x08009e60   Section        0  rt_mutex.o(i.rt_mut_release)
    i.rt_mut_wait                            0x08009f38   Section        0  rt_mutex.o(i.rt_mut_wait)
    i.rt_pop_req                             0x08009fb0   Section        0  rt_system.o(i.rt_pop_req)
    i.rt_psh_req                             0x0800a02c   Section        0  rt_system.o(i.rt_psh_req)
    i.rt_psq_enq                             0x0800a04c   Section        0  rt_list.o(i.rt_psq_enq)
    i.rt_put_dly                             0x0800a0a8   Section        0  rt_list.o(i.rt_put_dly)
    i.rt_put_prio                            0x0800a0f0   Section        0  rt_list.o(i.rt_put_prio)
    i.rt_put_rdy_first                       0x0800a128   Section        0  rt_list.o(i.rt_put_rdy_first)
    i.rt_resort_prio                         0x0800a13c   Section        0  rt_list.o(i.rt_resort_prio)
    i.rt_ret_val                             0x0800a170   Section        0  hal_cm.o(i.rt_ret_val)
    i.rt_ret_val2                            0x0800a176   Section        0  hal_cm.o(i.rt_ret_val2)
    i.rt_rmv_dly                             0x0800a17e   Section        0  rt_list.o(i.rt_rmv_dly)
    i.rt_rmv_list                            0x0800a1a8   Section        0  rt_list.o(i.rt_rmv_list)
    i.rt_sem_init                            0x0800a1d8   Section        0  rt_semaphore.o(i.rt_sem_init)
    i.rt_sem_psh                             0x0800a1e4   Section        0  rt_semaphore.o(i.rt_sem_psh)
    i.rt_sem_send                            0x0800a218   Section        0  rt_semaphore.o(i.rt_sem_send)
    i.rt_sem_wait                            0x0800a244   Section        0  rt_semaphore.o(i.rt_sem_wait)
    i.rt_stk_check                           0x0800a284   Section        0  rt_system.o(i.rt_stk_check)
    i.rt_switch_req                          0x0800a2a8   Section        0  rt_task.o(i.rt_switch_req)
    i.rt_sys_init                            0x0800a2d0   Section        0  rt_task.o(i.rt_sys_init)
    i.rt_sys_start                           0x0800a39c   Section        0  rt_task.o(i.rt_sys_start)
    i.rt_systick                             0x0800a414   Section        0  rt_system.o(i.rt_systick)
    i.rt_tid2ptcb                            0x0800a454   Section        0  rt_cmsis.o(i.rt_tid2ptcb)
    rt_tid2ptcb                              0x0800a455   Thumb Code    18  rt_cmsis.o(i.rt_tid2ptcb)
    i.rt_timer_insert                        0x0800a468   Section        0  rt_cmsis.o(i.rt_timer_insert)
    rt_timer_insert                          0x0800a469   Thumb Code    48  rt_cmsis.o(i.rt_timer_insert)
    i.rt_timer_remove                        0x0800a49c   Section        0  rt_cmsis.o(i.rt_timer_remove)
    rt_timer_remove                          0x0800a49d   Thumb Code    56  rt_cmsis.o(i.rt_timer_remove)
    i.rt_tsk_create                          0x0800a4d8   Section        0  rt_task.o(i.rt_tsk_create)
    i.rt_tsk_delete                          0x0800a560   Section        0  rt_task.o(i.rt_tsk_delete)
    i.rt_tsk_pass                            0x0800a6dc   Section        0  rt_task.o(i.rt_tsk_pass)
    i.rt_tsk_prio                            0x0800a70c   Section        0  rt_task.o(i.rt_tsk_prio)
    i.rt_tsk_self                            0x0800a788   Section        0  rt_task.o(i.rt_tsk_self)
    i.select_server                          0x0800a798   Section        0  net_dhcp6_client.o(i.select_server)
    select_server                            0x0800a799   Thumb Code   106  net_dhcp6_client.o(i.select_server)
    i.svcDelay                               0x0800a808   Section        0  rt_cmsis.o(i.svcDelay)
    i.svcKernelInitialize                    0x0800a81c   Section        0  rt_cmsis.o(i.svcKernelInitialize)
    i.svcKernelStart                         0x0800a88c   Section        0  rt_cmsis.o(i.svcKernelStart)
    i.svcMessageCreate                       0x0800a8d4   Section        0  rt_cmsis.o(i.svcMessageCreate)
    i.svcMessageGet                          0x0800a8f8   Section        0  rt_cmsis.o(i.svcMessageGet)
    i.svcMutexCreate                         0x0800a932   Section        0  rt_cmsis.o(i.svcMutexCreate)
    i.svcMutexRelease                        0x0800a94e   Section        0  rt_cmsis.o(i.svcMutexRelease)
    i.svcMutexWait                           0x0800a970   Section        0  rt_cmsis.o(i.svcMutexWait)
    i.svcSemaphoreCreate                     0x0800a9aa   Section        0  rt_cmsis.o(i.svcSemaphoreCreate)
    i.svcSemaphoreRelease                    0x0800a9ce   Section        0  rt_cmsis.o(i.svcSemaphoreRelease)
    i.svcSemaphoreWait                       0x0800a9f6   Section        0  rt_cmsis.o(i.svcSemaphoreWait)
    i.svcSignalClear                         0x0800aa28   Section        0  rt_cmsis.o(i.svcSignalClear)
    i.svcSignalSet                           0x0800aa4c   Section        0  rt_cmsis.o(i.svcSignalSet)
    i.svcSignalWait                          0x0800aa70   Section        0  rt_cmsis.o(i.svcSignalWait)
    i.svcThreadCreate                        0x0800aac4   Section        0  rt_cmsis.o(i.svcThreadCreate)
    i.svcThreadGetId                         0x0800ab30   Section        0  rt_cmsis.o(i.svcThreadGetId)
    i.svcThreadTerminate                     0x0800ab4c   Section        0  rt_cmsis.o(i.svcThreadTerminate)
    i.svcThreadYield                         0x0800ab84   Section        0  rt_cmsis.o(i.svcThreadYield)
    i.svcTimerCall                           0x0800ab8e   Section        0  rt_cmsis.o(i.svcTimerCall)
    i.svcTimerCreate                         0x0800aba8   Section        0  rt_cmsis.o(i.svcTimerCreate)
    i.svcTimerStart                          0x0800abe0   Section        0  rt_cmsis.o(i.svcTimerStart)
    i.sysTimerTick                           0x0800ac44   Section        0  rt_cmsis.o(i.sysTimerTick)
    i.sys_proc_tick                          0x0800aca0   Section        0  net_sys.o(i.sys_proc_tick)
    sys_proc_tick                            0x0800aca1   Thumb Code    72  net_sys.o(i.sys_proc_tick)
    i.tcp_map_socket                         0x0800acec   Section        0  net_tcp.o(i.tcp_map_socket)
    tcp_map_socket                           0x0800aced   Thumb Code   216  net_tcp.o(i.tcp_map_socket)
    i.tcp_parse_opt                          0x0800adcc   Section        0  net_tcp.o(i.tcp_parse_opt)
    tcp_parse_opt                            0x0800adcd   Thumb Code    94  net_tcp.o(i.tcp_parse_opt)
    i.tcp_proc_acknr                         0x0800ae2c   Section        0  net_tcp.o(i.tcp_proc_acknr)
    tcp_proc_acknr                           0x0800ae2d   Thumb Code   208  net_tcp.o(i.tcp_proc_acknr)
    i.tcp_proc_dupack                        0x0800af00   Section        0  net_tcp.o(i.tcp_proc_dupack)
    tcp_proc_dupack                          0x0800af01   Thumb Code    96  net_tcp.o(i.tcp_proc_dupack)
    i.tcp_que_free                           0x0800af60   Section        0  net_tcp.o(i.tcp_que_free)
    tcp_que_free                             0x0800af61   Thumb Code    26  net_tcp.o(i.tcp_que_free)
    i.tcp_que_init                           0x0800af7a   Section        0  net_tcp.o(i.tcp_que_init)
    tcp_que_init                             0x0800af7b   Thumb Code    26  net_tcp.o(i.tcp_que_init)
    i.tcp_que_resend                         0x0800af94   Section        0  net_tcp.o(i.tcp_que_resend)
    tcp_que_resend                           0x0800af95   Thumb Code   146  net_tcp.o(i.tcp_que_resend)
    i.tcp_send_ctrl                          0x0800b02c   Section        0  net_tcp.o(i.tcp_send_ctrl)
    tcp_send_ctrl                            0x0800b02d   Thumb Code   122  net_tcp.o(i.tcp_send_ctrl)
    i.tcp_send_data                          0x0800b0a6   Section        0  net_tcp.o(i.tcp_send_data)
    tcp_send_data                            0x0800b0a7   Thumb Code    96  net_tcp.o(i.tcp_send_data)
    i.tcp_send_reset                         0x0800b106   Section        0  net_tcp.o(i.tcp_send_reset)
    tcp_send_reset                           0x0800b107   Thumb Code   118  net_tcp.o(i.tcp_send_reset)
    i.tcp_set_cwnd                           0x0800b17c   Section        0  net_tcp.o(i.tcp_set_cwnd)
    tcp_set_cwnd                             0x0800b17d   Thumb Code    44  net_tcp.o(i.tcp_set_cwnd)
    i.tcp_transit                            0x0800b1a8   Section        0  net_tcp.o(i.tcp_transit)
    tcp_transit                              0x0800b1a9   Thumb Code   110  net_tcp.o(i.tcp_transit)
    i.tcp_write                              0x0800b21c   Section        0  net_tcp.o(i.tcp_write)
    tcp_write                                0x0800b21d   Thumb Code   232  net_tcp.o(i.tcp_write)
    i.telnet_kill_session                    0x0800b308   Section        0  net_telnet_server.o(i.telnet_kill_session)
    telnet_kill_session                      0x0800b309   Thumb Code    44  net_telnet_server.o(i.telnet_kill_session)
    i.telnet_listener                        0x0800b33c   Section        0  net_telnet_server.o(i.telnet_listener)
    telnet_listener                          0x0800b33d   Thumb Code   314  net_telnet_server.o(i.telnet_listener)
    i.telnet_parse_cmd                       0x0800b484   Section        0  net_telnet_server.o(i.telnet_parse_cmd)
    telnet_parse_cmd                         0x0800b485   Thumb Code   148  net_telnet_server.o(i.telnet_parse_cmd)
    i.telnet_server_run                      0x0800b518   Section        0  net_telnet_server.o(i.telnet_server_run)
    telnet_server_run                        0x0800b519   Thumb Code  1472  net_telnet_server.o(i.telnet_server_run)
    i.telnet_server_start                    0x0800badc   Section        0  net_telnet_server.o(i.telnet_server_start)
    telnet_server_start                      0x0800badd   Thumb Code    56  net_telnet_server.o(i.telnet_server_start)
    i.udp_port_in_use                        0x0800bb1c   Section        0  net_udp.o(i.udp_port_in_use)
    udp_port_in_use                          0x0800bb1d   Thumb Code    40  net_udp.o(i.udp_port_in_use)
    .constdata                               0x0800bb48   Section       52  telnet_server.o(.constdata)
    .constdata                               0x0800bb7c   Section      980  telnet_server_uif.o(.constdata)
    telnet_help1                             0x0800bb7c   Data         340  telnet_server_uif.o(.constdata)
    telnet_help2                             0x0800bcd0   Data          83  telnet_server_uif.o(.constdata)
    telnet_help3                             0x0800bd23   Data         143  telnet_server_uif.o(.constdata)
    meas_header                              0x0800bdb2   Data         128  telnet_server_uif.o(.constdata)
    tcp_stat_header                          0x0800be32   Data         286  telnet_server_uif.o(.constdata)
    .constdata                               0x0800bf50   Section       64  rtc.o(.constdata)
    .constdata                               0x0800bf90   Section       72  backlight.o(.constdata)
    .constdata                               0x0800bfd8   Section       20  sntp.o(.constdata)
    .constdata                               0x0800bfec   Section     5376  glcd_fonts.o(.constdata)
    Font_16x24_h                             0x0800bfec   Data        5376  glcd_fonts.o(.constdata)
    .constdata                               0x0800d4ec   Section       16  glcd_fonts.o(.constdata)
    .constdata                               0x0800d4fc   Section       64  led_mcbstm32c.o(.constdata)
    .constdata                               0x0800d53c   Section        2  rtx_conf_cm.o(.constdata)
    .constdata                               0x0800d540   Section        4  rtx_conf_cm.o(.constdata)
    .constdata                               0x0800d544   Section        4  rtx_conf_cm.o(.constdata)
    .constdata                               0x0800d548   Section        4  rtx_conf_cm.o(.constdata)
    .constdata                               0x0800d54c   Section        1  rtx_conf_cm.o(.constdata)
    .constdata                               0x0800d550   Section       32  rtx_conf_cm.o(.constdata)
    __tagsym$$used                           0x0800d550   Number         0  rtx_conf_cm.o(.constdata)
    __tagsym$$used                           0x0800d554   Number         0  rtx_conf_cm.o(.constdata)
    __tagsym$$used                           0x0800d558   Number         0  rtx_conf_cm.o(.constdata)
    __tagsym$$used                           0x0800d55c   Number         0  rtx_conf_cm.o(.constdata)
    .constdata                               0x0800d570   Section        2  rtx_conf_cm.o(.constdata)
    .constdata                               0x0800d574   Section        4  rtx_conf_cm.o(.constdata)
    .constdata                               0x0800d578   Section        4  rtx_conf_cm.o(.constdata)
    .constdata                               0x0800d57c   Section        1  rtx_conf_cm.o(.constdata)
    .constdata                               0x0800d580   Section       16  rtx_conf_cm.o(.constdata)
    .constdata                               0x0800d590   Section        8  rtx_conf_cm.o(.constdata)
    .constdata                               0x0800d598   Section        2  rtx_conf_cm.o(.constdata)
    .constdata                               0x0800d59a   Section        4  phy_dp83848c.o(.constdata)
    DriverVersion                            0x0800d59a   Data           4  phy_dp83848c.o(.constdata)
    .constdata                               0x0800d5a0   Section       32  phy_dp83848c.o(.constdata)
    .constdata                               0x0800d5c0   Section       80  emac_stm32f10x.o(.constdata)
    DriverVersion                            0x0800d5c0   Data           4  emac_stm32f10x.o(.constdata)
    DriverCapabilities                       0x0800d5c4   Data           4  emac_stm32f10x.o(.constdata)
    eth_out_pin                              0x0800d5c8   Data          40  emac_stm32f10x.o(.constdata)
    eth_in_pin                               0x0800d5f0   Data          32  emac_stm32f10x.o(.constdata)
    .constdata                               0x0800d610   Section       68  emac_stm32f10x.o(.constdata)
    .constdata                               0x0800d654   Section       56  spi_stm32f10x.o(.constdata)
    DriverVersion                            0x0800d654   Data           4  spi_stm32f10x.o(.constdata)
    DriverCapabilities                       0x0800d658   Data           4  spi_stm32f10x.o(.constdata)
    SPI3_Resources                           0x0800d65c   Data          48  spi_stm32f10x.o(.constdata)
    .constdata                               0x0800d68c   Section        8  spi_stm32f10x.o(.constdata)
    SPI3_mosi                                0x0800d68c   Data           8  spi_stm32f10x.o(.constdata)
    .constdata                               0x0800d694   Section        8  spi_stm32f10x.o(.constdata)
    SPI3_miso                                0x0800d694   Data           8  spi_stm32f10x.o(.constdata)
    .constdata                               0x0800d69c   Section        8  spi_stm32f10x.o(.constdata)
    SPI3_nss                                 0x0800d69c   Data           8  spi_stm32f10x.o(.constdata)
    .constdata                               0x0800d6a4   Section        8  spi_stm32f10x.o(.constdata)
    SPI3_sck                                 0x0800d6a4   Data           8  spi_stm32f10x.o(.constdata)
    .constdata                               0x0800d6ac   Section       44  spi_stm32f10x.o(.constdata)
    .constdata                               0x0800d6d8   Section       52  net_config.o(.constdata)
    .constdata                               0x0800d70c   Section       20  net_config.o(.constdata)
    .constdata                               0x0800d720   Section       52  net_config.o(.constdata)
    eth0_ip4_config                          0x0800d720   Data          52  net_config.o(.constdata)
    .constdata                               0x0800d754   Section       40  net_config.o(.constdata)
    eth0_ip6_config                          0x0800d754   Data          40  net_config.o(.constdata)
    .constdata                               0x0800d77c   Section       24  net_config.o(.constdata)
    .constdata                               0x0800d794   Section       12  net_config.o(.constdata)
    .constdata                               0x0800d7a0   Section       12  net_config.o(.constdata)
    .constdata                               0x0800d7ac   Section        8  net_config.o(.constdata)
    .constdata                               0x0800d7b4   Section       20  net_config.o(.constdata)
    .constdata                               0x0800d7c8   Section       28  net_config.o(.constdata)
    .constdata                               0x0800d7e4   Section       80  net_config.o(.constdata)
    .constdata                               0x0800d834   Section        6  net_eth.o(.constdata)
    .constdata                               0x0800d83c   Section       44  net_tcp.o(.constdata)
    sa                                       0x0800d83c   Data          44  net_tcp.o(.constdata)
    .constdata                               0x0800d868   Section       16  net_dhcp6_client.o(.constdata)
    .constdata                               0x0800d878   Section        8  net_nbns_client.o(.constdata)
    nbns_ttllen                              0x0800d878   Data           8  net_nbns_client.o(.constdata)
    .constdata                               0x0800d880   Section       18  net_ping.o(.constdata)
    .constdata                               0x0800d892   Section       16  net_addr.o(.constdata)
    .constdata                               0x0800d8a2   Section        8  net_ip4.o(.constdata)
    .constdata                               0x0800d8aa   Section       32  net_ip6.o(.constdata)
    .constdata                               0x0800d8ca   Section       16  net_ip6.o(.constdata)
    .constdata                               0x0800d8da   Section       64  ctype_c.o(.constdata)
    .conststring                             0x0800d91c   Section      664  rtc.o(.conststring)
    .conststring                             0x0800dbb4   Section       10  net_config.o(.conststring)
    .conststring                             0x0800dbc0   Section       64  net_config.o(.conststring)
    .conststring                             0x0800dc00   Section       61  net_config.o(.conststring)
    .conststring                             0x0800dc40   Section       18  net_config.o(.conststring)
    .conststring                             0x0800dc54   Section        9  net_config.o(.conststring)
    .conststring                             0x0800dc60   Section      109  net_tcp.o(.conststring)
    .data                                    0x20000000   Section       62  telnet_server.o(.data)
    .data                                    0x20000040   Section        8  telnet_server_uif.o(.data)
    .data                                    0x20000048   Section        8  sntp.o(.data)
    .data                                    0x20000050   Section        4  adc_mcbstm32c.o(.data)
    AD_done                                  0x20000050   Data           1  adc_mcbstm32c.o(.data)
    AD_last                                  0x20000052   Data           2  adc_mcbstm32c.o(.data)
    .data                                    0x20000054   Section       12  glcd_mcbstm32c.o(.data)
    Himax                                    0x20000054   Data           1  glcd_mcbstm32c.o(.data)
    foreground_color                         0x20000056   Data           2  glcd_mcbstm32c.o(.data)
    background_color                         0x20000058   Data           2  glcd_mcbstm32c.o(.data)
    active_font                              0x2000005c   Data           4  glcd_mcbstm32c.o(.data)
    .data                                    0x20000060   Section        4  rtx_conf_cm.o(.data)
    .data                                    0x20000064   Section        4  rtx_conf_cm.o(.data)
    .data                                    0x20000068   Section        4  rtx_conf_cm.o(.data)
    .data                                    0x2000006c   Section        4  emac_stm32f10x.o(.data)
    PhyTimeout                               0x2000006c   Data           4  emac_stm32f10x.o(.data)
    .data                                    0x20000070   Section        2  dma_stm32f10x.o(.data)
    DMA1_Channel                             0x20000070   Data           1  dma_stm32f10x.o(.data)
    DMA2_Channel                             0x20000071   Data           1  dma_stm32f10x.o(.data)
    .data                                    0x20000074   Section       20  system_stm32f10x.o(.data)
    .data                                    0x20000088   Section        8  net_config.o(.data)
    os_semaphore_cb_eth0_lock                0x20000088   Data           8  net_config.o(.data)
    .data                                    0x20000090   Section        6  net_config.o(.data)
    eth0_mac_addr                            0x20000090   Data           6  net_config.o(.data)
    .data                                    0x20000098   Section        8  rt_cmsis.o(.data)
    .data                                    0x200000a0   Section        1  net_arp.o(.data)
    entry                                    0x200000a0   Data           1  net_arp.o(.data)
    .data                                    0x200000a4   Section        8  net_loop.o(.data)
    loop_control                             0x200000a4   Data           8  net_loop.o(.data)
    .data                                    0x200000ac   Section        2  net_udp.o(.data)
    port                                     0x200000ac   Data           2  net_udp.o(.data)
    .data                                    0x200000ae   Section        4  net_tcp.o(.data)
    socket                                   0x200000ae   Data           1  net_tcp.o(.data)
    port                                     0x200000b0   Data           2  net_tcp.o(.data)
    .data                                    0x200000b2   Section        1  net_nbns_client.o(.data)
    nbns_Socket                              0x200000b2   Data           1  net_nbns_client.o(.data)
    .data                                    0x200000b4   Section        6  net_telnet_server.o(.data)
    session                                  0x200000b4   Data           1  net_telnet_server.o(.data)
    teln_en_auth                             0x200000b5   Data           1  net_telnet_server.o(.data)
    run_service                              0x200000b6   Data           1  net_telnet_server.o(.data)
    cmd_session                              0x200000b7   Data           1  net_telnet_server.o(.data)
    teln_port_num                            0x200000b8   Data           2  net_telnet_server.o(.data)
    .data                                    0x200000bc   Section        8  net_sys.o(.data)
    sys_mutex                                0x200000bc   Data           4  net_sys.o(.data)
    sys_thread                               0x200000c0   Data           4  net_sys.o(.data)
    .data                                    0x200000c4   Section        8  rt_task.o(.data)
    .data                                    0x200000cc   Section        8  rt_system.o(.data)
    os_lock                                  0x200000cc   Data           1  rt_system.o(.data)
    os_psh_flag                              0x200000cd   Data           1  rt_system.o(.data)
    pend_flags                               0x200000ce   Data           1  rt_system.o(.data)
    .data                                    0x200000d4   Section        4  rt_time.o(.data)
    .data                                    0x200000d8   Section        1  hal_cm.o(.data)
    .data                                    0x200000d9   Section        1  net_ndp.o(.data)
    entry                                    0x200000d9   Data           1  net_ndp.o(.data)
    .data                                    0x200000dc   Section        8  net_ip4.o(.data)
    ip4_control                              0x200000dc   Data           8  net_ip4.o(.data)
    .data                                    0x200000e4   Section        8  net_ip6.o(.data)
    ip6_control                              0x200000e4   Data           8  net_ip6.o(.data)
    .data                                    0x200000ec   Section        8  rt_robin.o(.data)
    .data                                    0x200000f4   Section        4  stdout.o(.data)
    .bss                                     0x200000f8   Section       16  telnet_server.o(.bss)
    .bss                                     0x20000108   Section      160  telnet_server.o(.bss)
    buf                                      0x20000108   Data          40  telnet_server.o(.bss)
    buf1                                     0x20000130   Data          40  telnet_server.o(.bss)
    ip_addr                                  0x20000158   Data          16  telnet_server.o(.bss)
    ip_ascii                                 0x20000168   Data          40  telnet_server.o(.bss)
    buf                                      0x20000190   Data          24  telnet_server.o(.bss)
    .bss                                     0x200001a8   Section       72  telnet_server_uif.o(.bss)
    .bss                                     0x200001f0   Section       72  sntp.o(.bss)
    .bss                                     0x20000238   Section       32  rtx_conf_cm.o(.bss)
    .bss                                     0x20000258   Section      376  rtx_conf_cm.o(.bss)
    .bss                                     0x200003d0   Section     2064  rtx_conf_cm.o(.bss)
    .bss                                     0x20000be0   Section     2584  rtx_conf_cm.o(.bss)
    .bss                                     0x200015f8   Section      132  rtx_conf_cm.o(.bss)
    .bss                                     0x2000167c   Section       28  rtx_conf_cm.o(.bss)
    .bss                                     0x20001698   Section       12  phy_dp83848c.o(.bss)
    PHY                                      0x20001698   Data          12  phy_dp83848c.o(.bss)
    .bss                                     0x200016a4   Section     9420  emac_stm32f10x.o(.bss)
    Emac                                     0x200016a4   Data          12  emac_stm32f10x.o(.bss)
    rx_desc                                  0x200016b0   Data         128  emac_stm32f10x.o(.bss)
    tx_desc                                  0x20001730   Data          64  emac_stm32f10x.o(.bss)
    rx_buf                                   0x20001770   Data        6144  emac_stm32f10x.o(.bss)
    tx_buf                                   0x20002f70   Data        3072  emac_stm32f10x.o(.bss)
    .bss                                     0x20003b70   Section       12  spi_stm32f10x.o(.bss)
    SPI3_Info                                0x20003b70   Data          12  spi_stm32f10x.o(.bss)
    .bss                                     0x20003b7c   Section       28  spi_stm32f10x.o(.bss)
    SPI3_TransferInfo                        0x20003b7c   Data          28  spi_stm32f10x.o(.bss)
    .bss                                     0x20003b98   Section       16  net_config.o(.bss)
    os_mutex_cb_net_lock                     0x20003b98   Data          16  net_config.o(.bss)
    .bss                                     0x20003ba8   Section       16  net_config.o(.bss)
    os_mutex_cb_mem_lock                     0x20003ba8   Data          16  net_config.o(.bss)
    .bss                                     0x20003bb8   Section       24  net_config.o(.bss)
    os_timer_cb_net_tick                     0x20003bb8   Data          24  net_config.o(.bss)
    .bss                                     0x20003bd0   Section    12000  net_config.o(.bss)
    mem_pool                                 0x20003bd0   Data       12000  net_config.o(.bss)
    .bss                                     0x20006ab0   Section      140  net_config.o(.bss)
    eth0_arp_table                           0x20006ab0   Data         140  net_config.o(.bss)
    .bss                                     0x20006b3c   Section       24  net_config.o(.bss)
    eth0_localm                              0x20006b3c   Data          24  net_config.o(.bss)
    .bss                                     0x20006b54   Section      140  net_config.o(.bss)
    eth0_ndp_table                           0x20006b54   Data         140  net_config.o(.bss)
    .bss                                     0x20006be0   Section      100  net_config.o(.bss)
    eth0_localm6                             0x20006be0   Data         100  net_config.o(.bss)
    .bss                                     0x20006c44   Section       60  net_config.o(.bss)
    udp_scb                                  0x20006c44   Data          60  net_config.o(.bss)
    .bss                                     0x20006c80   Section      528  net_config.o(.bss)
    tcp_scb                                  0x20006c80   Data         528  net_config.o(.bss)
    .bss                                     0x20006e90   Section     1104  net_config.o(.bss)
    telnet_scb                               0x20006e90   Data        1104  net_config.o(.bss)
    .bss                                     0x200072e0   Section       16  net_config.o(.bss)
    telnet_user                              0x200072e0   Data          16  net_config.o(.bss)
    .bss                                     0x200072f0   Section       16  net_config.o(.bss)
    telnet_passw                             0x200072f0   Data          16  net_config.o(.bss)
    .bss                                     0x20007300   Section      148  net_eth.o(.bss)
    .bss                                     0x20007394   Section       16  net_arp.o(.bss)
    arp_control                              0x20007394   Data          16  net_arp.o(.bss)
    .bss                                     0x200073a4   Section       20  net_udp.o(.bss)
    addr                                     0x200073a4   Data          20  net_udp.o(.bss)
    .bss                                     0x200073b8   Section       68  net_dhcp6_client.o(.bss)
    dhcp6_control                            0x200073b8   Data          68  net_dhcp6_client.o(.bss)
    .bss                                     0x200073fc   Section       32  net_ping.o(.bss)
    .bss                                     0x2000741c   Section       52  net_sys.o(.bss)
    name_buf                                 0x2000741c   Data          16  net_sys.o(.bss)
    .bss                                     0x20007450   Section       92  net_addr.o(.bss)
    buf                                      0x20007450   Data          16  net_addr.o(.bss)
    buf                                      0x20007460   Data          40  net_addr.o(.bss)
    buf                                      0x20007488   Data          18  net_addr.o(.bss)
    buf                                      0x2000749c   Data          16  net_addr.o(.bss)
    .bss                                     0x200074ac   Section       52  rt_task.o(.bss)
    .bss                                     0x200074e0   Section       48  rt_list.o(.bss)
    .bss                                     0x20007510   Section       60  net_ndp.o(.bss)
    slaac_control                            0x20007510   Data          26  net_ndp.o(.bss)
    ndp_control                              0x2000752c   Data          32  net_ndp.o(.bss)
    .bss                                     0x2000754c   Section       20  net_mem.o(.bss)
    mem_control                              0x2000754c   Data          20  net_mem.o(.bss)
    STACK                                    0x20007560   Section     1024  startup_stm32f10x_cl.o(STACK)

    Global Symbols

    Symbol Name                              Value     Ov Type        Size  Object(Section)

    BuildAttributes$$THM_ISAv4$P$D$K$B$S$PE$A:L22UL41UL21$X:L11$S22US41US21$IEEE1$IW$~IW$USESV6$~STKCKD$USESV7$~SHL$OSPACE$ROPI$EBA8$MICROLIB$REQ8$PRES8$EABIv2 0x00000000   Number         0  anon$$obj.o ABSOLUTE
    __ARM_use_no_argv                        0x00000000   Number         0  telnet_server.o ABSOLUTE
    _printf_a                                0x00000000   Number         0  stubs.o ABSOLUTE
    _printf_c                                0x00000000   Number         0  stubs.o ABSOLUTE
    _printf_charcount                        0x00000000   Number         0  stubs.o ABSOLUTE
    _printf_d                                0x00000000   Number         0  stubs.o ABSOLUTE
    _printf_e                                0x00000000   Number         0  stubs.o ABSOLUTE
    _printf_f                                0x00000000   Number         0  stubs.o ABSOLUTE
    _printf_flags                            0x00000000   Number         0  stubs.o ABSOLUTE
    _printf_fp_dec                           0x00000000   Number         0  stubs.o ABSOLUTE
    _printf_fp_hex                           0x00000000   Number         0  stubs.o ABSOLUTE
    _printf_g                                0x00000000   Number         0  stubs.o ABSOLUTE
    _printf_i                                0x00000000   Number         0  stubs.o ABSOLUTE
    _printf_int_dec                          0x00000000   Number         0  stubs.o ABSOLUTE
    _printf_l                                0x00000000   Number         0  stubs.o ABSOLUTE
    _printf_lc                               0x00000000   Number         0  stubs.o ABSOLUTE
    _printf_ll                               0x00000000   Number         0  stubs.o ABSOLUTE
    _printf_lld                              0x00000000   Number         0  stubs.o ABSOLUTE
    _printf_lli                              0x00000000   Number         0  stubs.o ABSOLUTE
    _printf_llo                              0x00000000   Number         0  stubs.o ABSOLUTE
    _printf_llu                              0x00000000   Number         0  stubs.o ABSOLUTE
    _printf_llx                              0x00000000   Number         0  stubs.o ABSOLUTE
    _printf_longlong_dec                     0x00000000   Number         0  stubs.o ABSOLUTE
    _printf_longlong_hex                     0x00000000   Number         0  stubs.o ABSOLUTE
    _printf_longlong_oct                     0x00000000   Number         0  stubs.o ABSOLUTE
    _printf_ls                               0x00000000   Number         0  stubs.o ABSOLUTE
    _printf_mbtowc                           0x00000000   Number         0  stubs.o ABSOLUTE
    _printf_n                                0x00000000   Number         0  stubs.o ABSOLUTE
    _printf_o                                0x00000000   Number         0  stubs.o ABSOLUTE
    _printf_p                                0x00000000   Number         0  stubs.o ABSOLUTE
    _printf_percent                          0x00000000   Number         0  stubs.o ABSOLUTE
    _printf_pre_padding                      0x00000000   Number         0  stubs.o ABSOLUTE
    _printf_return_value                     0x00000000   Number         0  stubs.o ABSOLUTE
    _printf_s                                0x00000000   Number         0  stubs.o ABSOLUTE
    _printf_sizespec                         0x00000000   Number         0  stubs.o ABSOLUTE
    _printf_str                              0x00000000   Number         0  stubs.o ABSOLUTE
    _printf_truncate_signed                  0x00000000   Number         0  stubs.o ABSOLUTE
    _printf_truncate_unsigned                0x00000000   Number         0  stubs.o ABSOLUTE
    _printf_u                                0x00000000   Number         0  stubs.o ABSOLUTE
    _printf_wc                               0x00000000   Number         0  stubs.o ABSOLUTE
    _printf_wctomb                           0x00000000   Number         0  stubs.o ABSOLUTE
    _printf_widthprec                        0x00000000   Number         0  stubs.o ABSOLUTE
    _printf_x                                0x00000000   Number         0  stubs.o ABSOLUTE
    __cpp_initialize__aeabi_                  - Undefined Weak Reference
    __cxa_finalize                            - Undefined Weak Reference
    __decompress                              - Undefined Weak Reference
    _clock_init                               - Undefined Weak Reference
    _microlib_exit                            - Undefined Weak Reference
    _scanf_longlong                           - Undefined Weak Reference
    _scanf_real                               - Undefined Weak Reference
    _scanf_string                             - Undefined Weak Reference
    __Vectors_Size                           0x00000150   Number         0  startup_stm32f10x_cl.o ABSOLUTE
    __RL_RTX_VER                             0x00000482   Number         0  rt_system.o ABSOLUTE
    __MW_NET_VER                             0x07050000   Number         0  net_version.o ABSOLUTE
    __Vectors                                0x08000000   Data           4  startup_stm32f10x_cl.o(RESET)
    __Vectors_End                            0x08000150   Data           0  startup_stm32f10x_cl.o(RESET)
    __main                                   0x08000151   Thumb Code     0  entry.o(.ARM.Collect$$$$00000000)
    _main_stk                                0x08000151   Thumb Code     0  entry2.o(.ARM.Collect$$$$00000001)
    _main_scatterload                        0x08000155   Thumb Code     0  entry5.o(.ARM.Collect$$$$00000004)
    __main_after_scatterload                 0x08000159   Thumb Code     0  entry5.o(.ARM.Collect$$$$00000004)
    __rt_final_cpp                           0x08000159   Thumb Code     0  entry10a.o(.ARM.Collect$$$$0000000D)
    __rt_final_exit                          0x08000159   Thumb Code     0  entry11a.o(.ARM.Collect$$$$0000000F)
    _main_clock                              0x08000159   Thumb Code     0  entry7b.o(.ARM.Collect$$$$00000008)
    _main_cpp_init                           0x08000159   Thumb Code     0  entry8b.o(.ARM.Collect$$$$0000000A)
    _main_init                               0x08000159   Thumb Code    18  rtx_conf_cm.o(.ARM.Collect$$$$000000FF)
    __asm___9_net_sys_c_71b12f21__sys_get_ver 0x08000175   Thumb Code     4  net_sys.o(.emb_text)
    rt_set_PSP                               0x0800017d   Thumb Code     6  hal_cm3.o(.emb_text)
    rt_get_PSP                               0x08000183   Thumb Code     6  hal_cm3.o(.emb_text)
    os_set_env                               0x08000189   Thumb Code    24  hal_cm3.o(.emb_text)
    _alloc_box                               0x080001a5   Thumb Code    28  hal_cm3.o(.emb_text)
    _free_box                                0x080001c5   Thumb Code    28  hal_cm3.o(.emb_text)
    SVC_Handler                              0x080001e5   Thumb Code   108  hal_cm3.o(.emb_text)
    PendSV_Handler                           0x0800025d   Thumb Code    56  hal_cm3.o(.emb_text)
    SysTick_Handler                          0x08000299   Thumb Code     8  hal_cm3.o(.emb_text)
    OS_Tick_Handler                          0x080002a1   Thumb Code    12  hal_cm3.o(.emb_text)
    AD_in                                    0x080002ad   Thumb Code    32  telnet_server.o(.text)
    main                                     0x0800047d   Thumb Code   136  telnet_server.o(.text)
    findn                                    0x080005a9   Thumb Code    48  telnet_server_uif.o(.text)
    netTELNETs_ProcessMessage                0x080005d9   Thumb Code    62  telnet_server_uif.o(.text)
    netTELNETs_ProcessCommand                0x08000617   Thumb Code  1802  telnet_server_uif.o(.text)
    rtc_protect                              0x08000ead   Thumb Code    22  rtc.o(.text)
    rtc_init                                 0x08000ec3   Thumb Code   140  rtc.o(.text)
    rtccnt                                   0x08000f4f   Thumb Code   100  rtc.o(.text)
    rtcsetcnt                                0x08000fb3   Thumb Code   144  rtc.o(.text)
    time2epoch                               0x08001043   Thumb Code   352  rtc.o(.text)
    epoch2time                               0x080011a3   Thumb Code   306  rtc.o(.text)
    tim3init                                 0x080012d5   Thumb Code   108  backlight.o(.text)
    backlight                                0x08001341   Thumb Code    30  backlight.o(.text)
    timer_init                               0x08001371   Thumb Code    52  timer.o(.text)
    TIM2_IRQHandler                          0x080013a5   Thumb Code    38  timer.o(.text)
    changed_endian                           0x080013dd   Thumb Code    24  sntp.o(.text)
    udp_cb_func                              0x080013f5   Thumb Code    26  sntp.o(.text)
    send_udp_data                            0x0800140f   Thumb Code    60  sntp.o(.text)
    ADC_Initialize                           0x0800145d   Thumb Code   134  adc_mcbstm32c.o(.text)
    ADC_Uninitialize                         0x080014e3   Thumb Code     4  adc_mcbstm32c.o(.text)
    ADC_StartConversion                      0x080014e7   Thumb Code    22  adc_mcbstm32c.o(.text)
    ADC_ConversionDone                       0x080014fd   Thumb Code    16  adc_mcbstm32c.o(.text)
    ADC_GetValue                             0x0800150d   Thumb Code    16  adc_mcbstm32c.o(.text)
    ADC_GetResolution                        0x0800151d   Thumb Code     4  adc_mcbstm32c.o(.text)
    ADC1_2_IRQHandler                        0x08001521   Thumb Code    34  adc_mcbstm32c.o(.text)
    GLCD_Initialize                          0x08001763   Thumb Code  1472  glcd_mcbstm32c.o(.text)
    GLCD_Uninitialize                        0x08001d23   Thumb Code    26  glcd_mcbstm32c.o(.text)
    GLCD_SetForegroundColor                  0x08001d3d   Thumb Code     8  glcd_mcbstm32c.o(.text)
    GLCD_SetBackgroundColor                  0x08001d45   Thumb Code     8  glcd_mcbstm32c.o(.text)
    GLCD_ClearScreen                         0x08001d4d   Thumb Code    54  glcd_mcbstm32c.o(.text)
    GLCD_SetFont                             0x08001d83   Thumb Code     8  glcd_mcbstm32c.o(.text)
    GLCD_DrawPixel                           0x08001d8b   Thumb Code   160  glcd_mcbstm32c.o(.text)
    GLCD_DrawHLine                           0x08001e2b   Thumb Code    42  glcd_mcbstm32c.o(.text)
    GLCD_DrawVLine                           0x08001e55   Thumb Code    44  glcd_mcbstm32c.o(.text)
    GLCD_DrawRectangle                       0x08001e81   Thumb Code    52  glcd_mcbstm32c.o(.text)
    GLCD_DrawChar                            0x08001eb5   Thumb Code   128  glcd_mcbstm32c.o(.text)
    GLCD_DrawString                          0x08001f35   Thumb Code    40  glcd_mcbstm32c.o(.text)
    GLCD_DrawBargraph                        0x08001f5d   Thumb Code    86  glcd_mcbstm32c.o(.text)
    GLCD_DrawBitmap                          0x08001fb3   Thumb Code    64  glcd_mcbstm32c.o(.text)
    GLCD_VScroll                             0x08001ff3   Thumb Code     6  glcd_mcbstm32c.o(.text)
    GLCD_FrameBufferAccess                   0x08001ff9   Thumb Code     6  glcd_mcbstm32c.o(.text)
    GLCD_FrameBufferAddress                  0x08001fff   Thumb Code     4  glcd_mcbstm32c.o(.text)
    LED_Initialize                           0x08002091   Thumb Code    60  led_mcbstm32c.o(.text)
    LED_Uninitialize                         0x080020cd   Thumb Code    36  led_mcbstm32c.o(.text)
    LED_On                                   0x080020f1   Thumb Code    22  led_mcbstm32c.o(.text)
    LED_Off                                  0x08002107   Thumb Code    24  led_mcbstm32c.o(.text)
    LED_SetOut                               0x0800211f   Thumb Code    40  led_mcbstm32c.o(.text)
    LED_GetCount                             0x08002147   Thumb Code     4  led_mcbstm32c.o(.text)
    os_idle_demon                            0x08002151   Thumb Code     2  rtx_conf_cm.o(.text)
    os_error                                 0x08002153   Thumb Code     2  rtx_conf_cm.o(.text)
    ETH_IRQHandler                           0x08002a0f   Thumb Code    56  emac_stm32f10x.o(.text)
    SPI_IRQHandler                           0x08002f81   Thumb Code   360  spi_stm32f10x.o(.text)
    SPI3_IRQHandler                          0x0800315b   Thumb Code     4  spi_stm32f10x.o(.text)
    DMA_ChannelInitialize                    0x08003305   Thumb Code   324  dma_stm32f10x.o(.text)
    DMA_ChannelUninitialize                  0x08003449   Thumb Code   242  dma_stm32f10x.o(.text)
    DMA1_Channel1_Event                      0x0800353b   Thumb Code     2  dma_stm32f10x.o(.text)
    DMA1_Channel2_Event                      0x0800353d   Thumb Code     2  dma_stm32f10x.o(.text)
    DMA1_Channel3_Event                      0x0800353f   Thumb Code     2  dma_stm32f10x.o(.text)
    DMA1_Channel4_Event                      0x08003541   Thumb Code     2  dma_stm32f10x.o(.text)
    DMA1_Channel5_Event                      0x08003543   Thumb Code     2  dma_stm32f10x.o(.text)
    DMA1_Channel6_Event                      0x08003545   Thumb Code     2  dma_stm32f10x.o(.text)
    DMA1_Channel7_Event                      0x08003547   Thumb Code     2  dma_stm32f10x.o(.text)
    DMA2_Channel1_Event                      0x08003549   Thumb Code     2  dma_stm32f10x.o(.text)
    DMA2_Channel2_Event                      0x0800354b   Thumb Code     2  dma_stm32f10x.o(.text)
    DMA2_Channel3_Event                      0x0800354d   Thumb Code     2  dma_stm32f10x.o(.text)
    DMA2_Channel4_Event                      0x0800354f   Thumb Code     2  dma_stm32f10x.o(.text)
    DMA2_Channel5_Event                      0x08003551   Thumb Code     2  dma_stm32f10x.o(.text)
    DMA1_Channel1_IRQHandler                 0x08003553   Thumb Code    18  dma_stm32f10x.o(.text)
    DMA1_Channel2_IRQHandler                 0x08003565   Thumb Code    20  dma_stm32f10x.o(.text)
    DMA1_Channel3_IRQHandler                 0x08003579   Thumb Code    20  dma_stm32f10x.o(.text)
    DMA1_Channel4_IRQHandler                 0x0800358d   Thumb Code    20  dma_stm32f10x.o(.text)
    DMA1_Channel5_IRQHandler                 0x080035a1   Thumb Code    20  dma_stm32f10x.o(.text)
    DMA1_Channel6_IRQHandler                 0x080035b5   Thumb Code    20  dma_stm32f10x.o(.text)
    DMA1_Channel7_IRQHandler                 0x080035c9   Thumb Code    20  dma_stm32f10x.o(.text)
    DMA2_Channel1_IRQHandler                 0x080035dd   Thumb Code    22  dma_stm32f10x.o(.text)
    DMA2_Channel2_IRQHandler                 0x080035f3   Thumb Code    24  dma_stm32f10x.o(.text)
    DMA2_Channel3_IRQHandler                 0x0800360b   Thumb Code    24  dma_stm32f10x.o(.text)
    DMA2_Channel5_IRQHandler                 0x08003623   Thumb Code    24  dma_stm32f10x.o(.text)
    DMA2_Channel4_5_IRQHandler               0x0800363b   Thumb Code    44  dma_stm32f10x.o(.text)
    GPIO_PortClock                           0x080036cd   Thumb Code   194  gpio_stm32f10x.o(.text)
    GPIO_GetPortClockState                   0x0800378f   Thumb Code   104  gpio_stm32f10x.o(.text)
    GPIO_PinConfigure                        0x080037f7   Thumb Code    98  gpio_stm32f10x.o(.text)
    GPIO_AFConfigure                         0x08003859   Thumb Code    76  gpio_stm32f10x.o(.text)
    Reset_Handler                            0x080038c9   Thumb Code     8  startup_stm32f10x_cl.o(.text)
    NMI_Handler                              0x080038d1   Thumb Code     2  startup_stm32f10x_cl.o(.text)
    HardFault_Handler                        0x080038d3   Thumb Code     2  startup_stm32f10x_cl.o(.text)
    MemManage_Handler                        0x080038d5   Thumb Code     2  startup_stm32f10x_cl.o(.text)
    BusFault_Handler                         0x080038d7   Thumb Code     2  startup_stm32f10x_cl.o(.text)
    UsageFault_Handler                       0x080038d9   Thumb Code     2  startup_stm32f10x_cl.o(.text)
    DebugMon_Handler                         0x080038dd   Thumb Code     2  startup_stm32f10x_cl.o(.text)
    CAN1_RX0_IRQHandler                      0x080038e3   Thumb Code     0  startup_stm32f10x_cl.o(.text)
    CAN1_RX1_IRQHandler                      0x080038e3   Thumb Code     0  startup_stm32f10x_cl.o(.text)
    CAN1_SCE_IRQHandler                      0x080038e3   Thumb Code     0  startup_stm32f10x_cl.o(.text)
    CAN1_TX_IRQHandler                       0x080038e3   Thumb Code     0  startup_stm32f10x_cl.o(.text)
    CAN2_RX0_IRQHandler                      0x080038e3   Thumb Code     0  startup_stm32f10x_cl.o(.text)
    CAN2_RX1_IRQHandler                      0x080038e3   Thumb Code     0  startup_stm32f10x_cl.o(.text)
    CAN2_SCE_IRQHandler                      0x080038e3   Thumb Code     0  startup_stm32f10x_cl.o(.text)
    CAN2_TX_IRQHandler                       0x080038e3   Thumb Code     0  startup_stm32f10x_cl.o(.text)
    DMA2_Channel4_IRQHandler                 0x080038e3   Thumb Code     0  startup_stm32f10x_cl.o(.text)
    ETH_WKUP_IRQHandler                      0x080038e3   Thumb Code     0  startup_stm32f10x_cl.o(.text)
    EXTI0_IRQHandler                         0x080038e3   Thumb Code     0  startup_stm32f10x_cl.o(.text)
    EXTI15_10_IRQHandler                     0x080038e3   Thumb Code     0  startup_stm32f10x_cl.o(.text)
    EXTI1_IRQHandler                         0x080038e3   Thumb Code     0  startup_stm32f10x_cl.o(.text)
    EXTI2_IRQHandler                         0x080038e3   Thumb Code     0  startup_stm32f10x_cl.o(.text)
    EXTI3_IRQHandler                         0x080038e3   Thumb Code     0  startup_stm32f10x_cl.o(.text)
    EXTI4_IRQHandler                         0x080038e3   Thumb Code     0  startup_stm32f10x_cl.o(.text)
    EXTI9_5_IRQHandler                       0x080038e3   Thumb Code     0  startup_stm32f10x_cl.o(.text)
    FLASH_IRQHandler                         0x080038e3   Thumb Code     0  startup_stm32f10x_cl.o(.text)
    I2C1_ER_IRQHandler                       0x080038e3   Thumb Code     0  startup_stm32f10x_cl.o(.text)
    I2C1_EV_IRQHandler                       0x080038e3   Thumb Code     0  startup_stm32f10x_cl.o(.text)
    I2C2_ER_IRQHandler                       0x080038e3   Thumb Code     0  startup_stm32f10x_cl.o(.text)
    I2C2_EV_IRQHandler                       0x080038e3   Thumb Code     0  startup_stm32f10x_cl.o(.text)
    OTG_FS_IRQHandler                        0x080038e3   Thumb Code     0  startup_stm32f10x_cl.o(.text)
    OTG_FS_WKUP_IRQHandler                   0x080038e3   Thumb Code     0  startup_stm32f10x_cl.o(.text)
    PVD_IRQHandler                           0x080038e3   Thumb Code     0  startup_stm32f10x_cl.o(.text)
    RCC_IRQHandler                           0x080038e3   Thumb Code     0  startup_stm32f10x_cl.o(.text)
    RTCAlarm_IRQHandler                      0x080038e3   Thumb Code     0  startup_stm32f10x_cl.o(.text)
    RTC_IRQHandler                           0x080038e3   Thumb Code     0  startup_stm32f10x_cl.o(.text)
    SPI1_IRQHandler                          0x080038e3   Thumb Code     0  startup_stm32f10x_cl.o(.text)
    SPI2_IRQHandler                          0x080038e3   Thumb Code     0  startup_stm32f10x_cl.o(.text)
    TAMPER_IRQHandler                        0x080038e3   Thumb Code     0  startup_stm32f10x_cl.o(.text)
    TIM1_BRK_IRQHandler                      0x080038e3   Thumb Code     0  startup_stm32f10x_cl.o(.text)
    TIM1_CC_IRQHandler                       0x080038e3   Thumb Code     0  startup_stm32f10x_cl.o(.text)
    TIM1_TRG_COM_IRQHandler                  0x080038e3   Thumb Code     0  startup_stm32f10x_cl.o(.text)
    TIM1_UP_IRQHandler                       0x080038e3   Thumb Code     0  startup_stm32f10x_cl.o(.text)
    TIM3_IRQHandler                          0x080038e3   Thumb Code     0  startup_stm32f10x_cl.o(.text)
    TIM4_IRQHandler                          0x080038e3   Thumb Code     0  startup_stm32f10x_cl.o(.text)
    TIM5_IRQHandler                          0x080038e3   Thumb Code     0  startup_stm32f10x_cl.o(.text)
    TIM6_IRQHandler                          0x080038e3   Thumb Code     0  startup_stm32f10x_cl.o(.text)
    TIM7_IRQHandler                          0x080038e3   Thumb Code     0  startup_stm32f10x_cl.o(.text)
    UART4_IRQHandler                         0x080038e3   Thumb Code     0  startup_stm32f10x_cl.o(.text)
    UART5_IRQHandler                         0x080038e3   Thumb Code     0  startup_stm32f10x_cl.o(.text)
    USART1_IRQHandler                        0x080038e3   Thumb Code     0  startup_stm32f10x_cl.o(.text)
    USART2_IRQHandler                        0x080038e3   Thumb Code     0  startup_stm32f10x_cl.o(.text)
    USART3_IRQHandler                        0x080038e3   Thumb Code     0  startup_stm32f10x_cl.o(.text)
    WWDG_IRQHandler                          0x080038e3   Thumb Code     0  startup_stm32f10x_cl.o(.text)
    SystemInit                               0x080039ab   Thumb Code    76  system_stm32f10x.o(.text)
    SystemCoreClockUpdate                    0x080039f7   Thumb Code   140  system_stm32f10x.o(.text)
    netos_thread_create                      0x08003ab1   Thumb Code     8  net_config.o(.text)
    netos_thread_id                          0x08003ab9   Thumb Code     4  net_config.o(.text)
    netos_thread_pass                        0x08003abd   Thumb Code     4  net_config.o(.text)
    netos_timer_create                       0x08003ac1   Thumb Code    12  net_config.o(.text)
    netos_timer_start                        0x08003acd   Thumb Code     4  net_config.o(.text)
    netos_mutex_create                       0x08003ad1   Thumb Code    16  net_config.o(.text)
    netos_lock                               0x08003ae1   Thumb Code     8  net_config.o(.text)
    netos_unlock                             0x08003ae9   Thumb Code     4  net_config.o(.text)
    netos_flag_wait                          0x08003aed   Thumb Code     4  net_config.o(.text)
    netos_flag_set                           0x08003af1   Thumb Code     4  net_config.o(.text)
    netos_flag_clear                         0x08003af5   Thumb Code     4  net_config.o(.text)
    netos_delay                              0x08003af9   Thumb Code     4  net_config.o(.text)
    netif_create                             0x08003afd   Thumb Code    36  net_config.o(.text)
    netif_lock                               0x08003b21   Thumb Code     8  net_config.o(.text)
    netif_unlock                             0x08003b29   Thumb Code     4  net_config.o(.text)
    net_igmp_is_member                       0x08003b2d   Thumb Code     4  net_config.o(.text)
    net_igmp_collect_addr                    0x08003b31   Thumb Code     4  net_config.o(.text)
    net_igmp_process                         0x08003b35   Thumb Code     2  net_config.o(.text)
    netDHCP_Enable                           0x08003b37   Thumb Code     4  net_config.o(.text)
    netDHCP_Disable                          0x08003b3b   Thumb Code     4  net_config.o(.text)
    netDHCP_SetOption                        0x08003b3f   Thumb Code     4  net_config.o(.text)
    net_ppp_send_frame                       0x08003b43   Thumb Code     4  net_config.o(.text)
    net_ppp_get_option                       0x08003b47   Thumb Code     4  net_config.o(.text)
    net_ppp_set_option                       0x08003b4b   Thumb Code     4  net_config.o(.text)
    net_slip_send_frame                      0x08003b4f   Thumb Code     4  net_config.o(.text)
    net_slip_get_option                      0x08003b53   Thumb Code     4  net_config.o(.text)
    net_slip_set_option                      0x08003b57   Thumb Code     4  net_config.o(.text)
    net_ip4_frag_add                         0x08003b5b   Thumb Code     2  net_config.o(.text)
    net_ip4_frag_get                         0x08003b5d   Thumb Code     2  net_config.o(.text)
    netSNTPc_GetTime                         0x08003b5f   Thumb Code     4  net_config.o(.text)
    net_sys_error                            0x08003b63   Thumb Code     2  net_config.o(.text)
    __aeabi_uldivmod                         0x08003b69   Thumb Code    98  uldiv.o(.text)
    ___aeabi_memcpy8$move                    0x08003bcb   Thumb Code     0  memmovea.o(.text)
    __aeabi_memcpy                           0x08003bcb   Thumb Code    64  memmovea.o(.text)
    __aeabi_memcpy4                          0x08003bcb   Thumb Code     0  memmovea.o(.text)
    __aeabi_memmove                          0x08003bcb   Thumb Code     0  memmovea.o(.text)
    __aeabi_memmove4                         0x08003bcb   Thumb Code     0  memmovea.o(.text)
    __aeabi_memmove8                         0x08003bcb   Thumb Code     0  memmovea.o(.text)
    __aeabi_memset                           0x08003c0b   Thumb Code    14  memseta.o(.text)
    __aeabi_memset4                          0x08003c0b   Thumb Code     0  memseta.o(.text)
    __aeabi_memset8                          0x08003c0b   Thumb Code     0  memseta.o(.text)
    __aeabi_memclr                           0x08003c19   Thumb Code     4  memseta.o(.text)
    __aeabi_memclr4                          0x08003c19   Thumb Code     0  memseta.o(.text)
    __aeabi_memclr8                          0x08003c19   Thumb Code     0  memseta.o(.text)
    _memset$wrapper                          0x08003c1d   Thumb Code    18  memseta.o(.text)
    strlen                                   0x08003c2f   Thumb Code    14  strlen.o(.text)
    strcmp                                   0x08003c3d   Thumb Code    28  strcmp.o(.text)
    memcmp                                   0x08003c59   Thumb Code    26  memcmp.o(.text)
    __0sscanf                                0x08003c75   Thumb Code    48  __0sscanf.o(.text)
    _scanf_int                               0x08003cad   Thumb Code   332  _scanf_int.o(.text)
    __aeabi_llsl                             0x08003df9   Thumb Code    30  llshl.o(.text)
    _ll_shift_l                              0x08003df9   Thumb Code     0  llshl.o(.text)
    __aeabi_llsr                             0x08003e17   Thumb Code    32  llushr.o(.text)
    _ll_ushift_r                             0x08003e17   Thumb Code     0  llushr.o(.text)
    _chval                                   0x08003e37   Thumb Code    28  _chval.o(.text)
    __vfscanf_char                           0x08003e61   Thumb Code    20  scanf_char.o(.text)
    _sgetc                                   0x08003e7d   Thumb Code    30  _sgetc.o(.text)
    _sbackspace                              0x08003e9b   Thumb Code    34  _sgetc.o(.text)
    __scatterload                            0x08003ebd   Thumb Code    28  init.o(.text)
    __scatterload_rt2                        0x08003ebd   Thumb Code     0  init.o(.text)
    __semihosting_library_function           0x08003ee1   Thumb Code     0  semi.o(.text)
    isspace                                  0x08003ee1   Thumb Code    10  isspace_c.o(.text)
    __vfscanf                                0x08003eed   Thumb Code   808  _scanf.o(.text)
    __I$use$semihosting$fputc                0x08004219   Thumb Code     0  iusesemip.o(.text)
    __ctype_lookup                           0x08004219   Thumb Code    34  ctype_c.o(.text)
    SVC_Count                                0x08004240   Data           4  svc_table.o(SVC_TABLE)
    SVC_Table                                0x08004244   Data           0  svc_table.o(SVC_TABLE)
    __0printf$8                              0x08004245   Thumb Code    22  printf8.o(i.__0printf$8)
    __1printf$8                              0x08004245   Thumb Code     0  printf8.o(i.__0printf$8)
    __2printf                                0x08004245   Thumb Code     0  printf8.o(i.__0printf$8)
    __0sprintf$8                             0x08004265   Thumb Code    34  printf8.o(i.__0sprintf$8)
    __1sprintf$8                             0x08004265   Thumb Code     0  printf8.o(i.__0sprintf$8)
    __2sprintf                               0x08004265   Thumb Code     0  printf8.o(i.__0sprintf$8)
    __scatterload_copy                       0x0800428d   Thumb Code    14  handlers.o(i.__scatterload_copy)
    __scatterload_null                       0x0800429b   Thumb Code     2  handlers.o(i.__scatterload_null)
    __scatterload_zeroinit                   0x0800429d   Thumb Code    14  handlers.o(i.__scatterload_zeroinit)
    _init_box                                0x080042ab   Thumb Code    70  rt_membox.o(i._init_box)
    dbg_init                                 0x08004ad1   Thumb Code    34  hal_cm.o(i.dbg_init)
    dbg_task_notify                          0x08004b01   Thumb Code    32  hal_cm.o(i.dbg_task_notify)
    dbg_task_switch                          0x08004b21   Thumb Code    16  hal_cm.o(i.dbg_task_switch)
    fputc                                    0x08005245   Thumb Code    18  fputc.o(i.fputc)
    isrMessageGet                            0x08005509   Thumb Code    42  rt_cmsis.o(i.isrMessageGet)
    isrMessagePut                            0x08005533   Thumb Code    44  rt_cmsis.o(i.isrMessagePut)
    isrSemaphoreRelease                      0x0800555f   Thumb Code    40  rt_cmsis.o(i.isrSemaphoreRelease)
    isrSignalSet                             0x08005587   Thumb Code    36  rt_cmsis.o(i.isrSignalSet)
    isr_evt_set                              0x080055ad   Thumb Code    34  rt_event.o(i.isr_evt_set)
    isr_mbx_receive                          0x080055d5   Thumb Code    86  rt_mailbox.o(i.isr_mbx_receive)
    isr_mbx_send                             0x0800562b   Thumb Code    14  rt_mailbox.o(i.isr_mbx_send)
    isr_sem_send                             0x08005639   Thumb Code    16  rt_semaphore.o(i.isr_sem_send)
    netCore_Thread                           0x08005d19   Thumb Code    76  net_sys.o(i.netCore_Thread)
    netDHCP6_Notify                          0x08005d71   Thumb Code     2  net_dhcp6_client.o(i.netDHCP6_Notify)
    netETH_Notify                            0x08005d73   Thumb Code     2  net_eth.o(i.netETH_Notify)
    netETH_ReceiveRaw                        0x08005d75   Thumb Code     2  net_eth.o(i.netETH_ReceiveRaw)
    netETH_Thread                            0x08005d79   Thumb Code    56  net_eth.o(i.netETH_Thread)
    netIF_GetOption                          0x08005db5   Thumb Code   104  net_sys.o(i.netIF_GetOption)
    netIP_ntoa                               0x08005e1d   Thumb Code    50  net_addr.o(i.netIP_ntoa)
    netInitialize                            0x08005e51   Thumb Code   104  net_sys.o(i.netInitialize)
    netMAC_aton                              0x08005ec9   Thumb Code   112  net_addr.o(i.netMAC_aton)
    netTCP_GetLocalPort                      0x08005f45   Thumb Code     4  net_tcp.o(i.netTCP_GetLocalPort)
    netTCP_GetPeer                           0x08005f49   Thumb Code    32  net_tcp.o(i.netTCP_GetPeer)
    netTCP_GetState                          0x08005f69   Thumb Code     4  net_tcp.o(i.netTCP_GetState)
    netTCP_GetTimer                          0x08005f6d   Thumb Code     4  net_tcp.o(i.netTCP_GetTimer)
    netTELNETs_AcceptClient                  0x08005f71   Thumb Code     4  net_telnet_server.o(i.netTELNETs_AcceptClient)
    netTELNETs_CheckCommand                  0x08005f75   Thumb Code    46  net_telnet_server.o(i.netTELNETs_CheckCommand)
    netTELNETs_CheckPassword                 0x08005fa3   Thumb Code     4  net_telnet_server.o(i.netTELNETs_CheckPassword)
    netTELNETs_CheckUsername                 0x08005fa7   Thumb Code     4  net_telnet_server.o(i.netTELNETs_CheckUsername)
    netTELNETs_GetClient                     0x08005fad   Thumb Code    40  net_telnet_server.o(i.netTELNETs_GetClient)
    netTELNETs_GetPassword                   0x08005fdd   Thumb Code     6  net_telnet_server.o(i.netTELNETs_GetPassword)
    netTELNETs_LoginActive                   0x08005fe9   Thumb Code     6  net_telnet_server.o(i.netTELNETs_LoginActive)
    netTELNETs_RepeatCommand                 0x08005ff5   Thumb Code    60  net_telnet_server.o(i.netTELNETs_RepeatCommand)
    netTELNETs_SetPassword                   0x0800603d   Thumb Code    52  net_telnet_server.o(i.netTELNETs_SetPassword)
    netUDP_GetBuffer                         0x08006075   Thumb Code     4  net_udp.o(i.netUDP_GetBuffer)
    netUDP_GetSocket                         0x08006079   Thumb Code    24  net_udp.o(i.netUDP_GetSocket)
    netUDP_Open                              0x08006091   Thumb Code    28  net_udp.o(i.netUDP_Open)
    netUDP_Send                              0x080060ad   Thumb Code    40  net_udp.o(i.netUDP_Send)
    net_addr4_aton                           0x080060d5   Thumb Code    82  net_addr.o(i.net_addr4_aton)
    net_addr4_is_subnet                      0x0800613d   Thumb Code    26  net_addr.o(i.net_addr4_is_subnet)
    net_addr6_aton                           0x08006159   Thumb Code   240  net_addr.o(i.net_addr6_aton)
    net_addr6_comp                           0x0800624d   Thumb Code    40  net_addr.o(i.net_addr6_comp)
    net_addr6_copy                           0x08006275   Thumb Code    18  net_addr.o(i.net_addr6_copy)
    net_addr6_create                         0x08006289   Thumb Code    70  net_addr.o(i.net_addr6_create)
    net_addr6_get_solicited                  0x080062d5   Thumb Code    34  net_addr.o(i.net_addr6_get_solicited)
    net_addr6_is_linklocal                   0x08006301   Thumb Code    24  net_addr.o(i.net_addr6_is_linklocal)
    net_addr6_is_onlink                      0x08006319   Thumb Code   108  net_addr.o(i.net_addr6_is_onlink)
    net_addr6_is_solicited                   0x08006385   Thumb Code    72  net_addr.o(i.net_addr6_is_solicited)
    net_addr6_is_unspec                      0x080063cd   Thumb Code    24  net_addr.o(i.net_addr6_is_unspec)
    net_addr_copy                            0x080063e5   Thumb Code    26  net_addr.o(i.net_addr_copy)
    net_addr_get_local                       0x080063ff   Thumb Code    14  net_addr.o(i.net_addr_get_local)
    net_addr_is_unspec                       0x0800640d   Thumb Code    34  net_addr.o(i.net_addr_is_unspec)
    net_arp_cache_add                        0x08006431   Thumb Code   168  net_arp.o(i.net_arp_cache_add)
    net_arp_cache_early                      0x080064e1   Thumb Code   142  net_arp.o(i.net_arp_cache_early)
    net_arp_cache_find                       0x08006579   Thumb Code   166  net_arp.o(i.net_arp_cache_find)
    net_arp_init                             0x0800662d   Thumb Code    46  net_arp.o(i.net_arp_init)
    net_arp_notify                           0x08006665   Thumb Code    34  net_arp.o(i.net_arp_notify)
    net_arp_process                          0x08006695   Thumb Code   314  net_arp.o(i.net_arp_process)
    net_arp_run                              0x080067dd   Thumb Code   234  net_arp.o(i.net_arp_run)
    net_crc32_buf                            0x080068d9   Thumb Code    24  net_common.o(i.net_crc32_buf)
    net_dhcp6_client_init                    0x080068f1   Thumb Code    68  net_dhcp6_client.o(i.net_dhcp6_client_init)
    net_dhcp6_client_run                     0x08006945   Thumb Code   494  net_dhcp6_client.o(i.net_dhcp6_client_run)
    net_eth_get_option                       0x08006b49   Thumb Code   188  net_eth.o(i.net_eth_get_option)
    net_eth_iface_init                       0x08006c11   Thumb Code   518  net_eth.o(i.net_eth_iface_init)
    net_eth_iface_run                        0x08006e31   Thumb Code   386  net_eth.o(i.net_eth_iface_run)
    net_eth_is_my_addr                       0x08006fc5   Thumb Code    28  net_eth.o(i.net_eth_is_my_addr)
    net_eth_output                           0x08006fe5   Thumb Code    54  net_eth.o(i.net_eth_output)
    net_eth_send_frame                       0x08007021   Thumb Code   204  net_eth.o(i.net_eth_send_frame)
    net_eth_update_filter                    0x080070fd   Thumb Code   246  net_eth.o(i.net_eth_update_filter)
    net_icmp6_process                        0x08007205   Thumb Code   290  net_icmp6.o(i.net_icmp6_process)
    net_icmp6_send                           0x08007335   Thumb Code    92  net_icmp6.o(i.net_icmp6_send)
    net_icmp6_send_echo                      0x08007391   Thumb Code    72  net_icmp6.o(i.net_icmp6_send_echo)
    net_icmp_process                         0x080073e1   Thumb Code   228  net_icmp.o(i.net_icmp_process)
    net_icmp_send_echo                       0x080074d5   Thumb Code   118  net_icmp.o(i.net_icmp_send_echo)
    net_ip4_checksum                         0x08007555   Thumb Code    76  net_ip4.o(i.net_ip4_checksum)
    net_ip4_chk_frame                        0x080075a1   Thumb Code   198  net_ip4.o(i.net_ip4_chk_frame)
    net_ip4_chksum_buf                       0x08007675   Thumb Code    50  net_ip4.o(i.net_ip4_chksum_buf)
    net_ip4_get_local                        0x080076a9   Thumb Code    54  net_ip4.o(i.net_ip4_get_local)
    net_ip4_init                             0x080076ed   Thumb Code    60  net_ip4.o(i.net_ip4_init)
    net_ip4_is_subcast                       0x08007731   Thumb Code    38  net_ip4.o(i.net_ip4_is_subcast)
    net_ip4_reass_frame                      0x0800775d   Thumb Code    16  net_ip4.o(i.net_ip4_reass_frame)
    net_ip4_send_frame                       0x0800776d   Thumb Code   312  net_ip4.o(i.net_ip4_send_frame)
    net_ip4_tx_offload                       0x080078ad   Thumb Code    74  net_ip4.o(i.net_ip4_tx_offload)
    net_ip6_checksum                         0x08007905   Thumb Code    82  net_ip6.o(i.net_ip6_checksum)
    net_ip6_chk_frame                        0x08007959   Thumb Code   150  net_ip6.o(i.net_ip6_chk_frame)
    net_ip6_get_local                        0x080079fd   Thumb Code    78  net_ip6.o(i.net_ip6_get_local)
    net_ip6_init                             0x08007a59   Thumb Code    42  net_ip6.o(i.net_ip6_init)
    net_ip6_send_frame                       0x08007a8d   Thumb Code   166  net_ip6.o(i.net_ip6_send_frame)
    net_ip6_tx_netif                         0x08007b41   Thumb Code     6  net_ip6.o(i.net_ip6_tx_netif)
    net_ip6_tx_offload                       0x08007b4d   Thumb Code    40  net_ip6.o(i.net_ip6_tx_offload)
    net_loop_iface_init                      0x08007b7d   Thumb Code    30  net_loop.o(i.net_loop_iface_init)
    net_loop_iface_run                       0x08007ba5   Thumb Code   138  net_loop.o(i.net_loop_iface_run)
    net_loop_send_frame                      0x08007c39   Thumb Code    66  net_loop.o(i.net_loop_send_frame)
    net_mem_alloc                            0x08007c81   Thumb Code   130  net_mem.o(i.net_mem_alloc)
    net_mem_avail                            0x08007d0d   Thumb Code    22  net_mem.o(i.net_mem_avail)
    net_mem_free                             0x08007d29   Thumb Code   100  net_mem.o(i.net_mem_free)
    net_mem_init                             0x08007d95   Thumb Code    88  net_mem.o(i.net_mem_init)
    net_mem_shrink                           0x08007df5   Thumb Code    50  net_mem.o(i.net_mem_shrink)
    net_nbns_client_init                     0x08007e2d   Thumb Code    36  net_nbns_client.o(i.net_nbns_client_init)
    net_ndp_cache_find                       0x08007e59   Thumb Code   136  net_ndp.o(i.net_ndp_cache_find)
    net_ndp_cache_refresh                    0x08007eed   Thumb Code    78  net_ndp.o(i.net_ndp_cache_refresh)
    net_ndp_init                             0x08007f41   Thumb Code    68  net_ndp.o(i.net_ndp_init)
    net_ndp_process                          0x08007f91   Thumb Code   540  net_ndp.o(i.net_ndp_process)
    net_ndp_run                              0x080081bd   Thumb Code   194  net_ndp.o(i.net_ndp_run)
    net_ping_client_init                     0x0800828d   Thumb Code    10  net_ping.o(i.net_ping_client_init)
    net_ping_client_run                      0x0800829d   Thumb Code    56  net_ping.o(i.net_ping_client_run)
    net_rand32                               0x080082dd   Thumb Code    18  net_sys.o(i.net_rand32)
    net_strcpy                               0x080082f9   Thumb Code    18  net_common.o(i.net_strcpy)
    net_strtoupper                           0x0800830b   Thumb Code    28  net_common.o(i.net_strtoupper)
    net_sys_lock                             0x08008329   Thumb Code     8  net_sys.o(i.net_sys_lock)
    net_sys_tick                             0x08008335   Thumb Code    16  net_sys.o(i.net_sys_tick)
    net_sys_unlock                           0x08008349   Thumb Code     8  net_sys.o(i.net_sys_unlock)
    net_sys_wakeup                           0x08008355   Thumb Code    24  net_sys.o(i.net_sys_wakeup)
    net_tcp_close                            0x08008375   Thumb Code   166  net_tcp.o(i.net_tcp_close)
    net_tcp_get_buf                          0x08008421   Thumb Code    30  net_tcp.o(i.net_tcp_get_buf)
    net_tcp_get_local_port                   0x08008441   Thumb Code    48  net_tcp.o(i.net_tcp_get_local_port)
    net_tcp_get_mss                          0x08008475   Thumb Code    34  net_tcp.o(i.net_tcp_get_mss)
    net_tcp_get_peer                         0x0800849d   Thumb Code    80  net_tcp.o(i.net_tcp_get_peer)
    net_tcp_get_socket                       0x080084f1   Thumb Code    70  net_tcp.o(i.net_tcp_get_socket)
    net_tcp_get_state                        0x0800853d   Thumb Code    40  net_tcp.o(i.net_tcp_get_state)
    net_tcp_get_timer                        0x08008569   Thumb Code    48  net_tcp.o(i.net_tcp_get_timer)
    net_tcp_listen                           0x0800859d   Thumb Code   120  net_tcp.o(i.net_tcp_listen)
    net_tcp_ntoa                             0x08008619   Thumb Code     8  net_tcp.o(i.net_tcp_ntoa)
    net_tcp_process                          0x08008625   Thumb Code  1294  net_tcp.o(i.net_tcp_process)
    net_tcp_send                             0x08008b35   Thumb Code   222  net_tcp.o(i.net_tcp_send)
    net_tcp_set_option                       0x08008c1d   Thumb Code   158  net_tcp.o(i.net_tcp_set_option)
    net_tcp_socket_init                      0x08008cc1   Thumb Code    14  net_tcp.o(i.net_tcp_socket_init)
    net_tcp_socket_run                       0x08008cd5   Thumb Code   748  net_tcp.o(i.net_tcp_socket_run)
    net_telnet_server_init                   0x08008fcd   Thumb Code   144  net_telnet_server.o(i.net_telnet_server_init)
    net_telnet_server_run                    0x0800906d   Thumb Code    14  net_telnet_server.o(i.net_telnet_server_run)
    net_udp_get_buf                          0x08009081   Thumb Code    30  net_udp.o(i.net_udp_get_buf)
    net_udp_get_socket                       0x080090a1   Thumb Code    70  net_udp.o(i.net_udp_get_socket)
    net_udp_open                             0x080090ed   Thumb Code    98  net_udp.o(i.net_udp_open)
    net_udp_process                          0x08009159   Thumb Code   214  net_udp.o(i.net_udp_process)
    net_udp_send                             0x0800923d   Thumb Code   372  net_udp.o(i.net_udp_send)
    net_udp_socket_init                      0x080093b5   Thumb Code    16  net_udp.o(i.net_udp_socket_init)
    osDelay                                  0x080093c9   Thumb Code    18  rt_cmsis.o(i.osDelay)
    osKernelInitialize                       0x080093e1   Thumb Code    30  rt_cmsis.o(i.osKernelInitialize)
    osKernelStart                            0x08009405   Thumb Code    98  rt_cmsis.o(i.osKernelStart)
    osMessageGet                             0x08009471   Thumb Code    18  rt_cmsis.o(i.osMessageGet)
    osMutexCreate                            0x08009489   Thumb Code    36  rt_cmsis.o(i.osMutexCreate)
    osMutexRelease                           0x080094b5   Thumb Code    18  rt_cmsis.o(i.osMutexRelease)
    osMutexWait                              0x080094cd   Thumb Code    18  rt_cmsis.o(i.osMutexWait)
    osSemaphoreCreate                        0x080094e5   Thumb Code    36  rt_cmsis.o(i.osSemaphoreCreate)
    osSemaphoreRelease                       0x08009511   Thumb Code    18  rt_cmsis.o(i.osSemaphoreRelease)
    osSemaphoreWait                          0x08009529   Thumb Code    20  rt_cmsis.o(i.osSemaphoreWait)
    osSignalClear                            0x08009541   Thumb Code    20  rt_cmsis.o(i.osSignalClear)
    osSignalSet                              0x08009559   Thumb Code    18  rt_cmsis.o(i.osSignalSet)
    osSignalWait                             0x08009571   Thumb Code    18  rt_cmsis.o(i.osSignalWait)
    osThreadCreate                           0x08009589   Thumb Code    36  rt_cmsis.o(i.osThreadCreate)
    osThreadExit                             0x080095b5   Thumb Code    14  rt_cmsis.o(i.osThreadExit)
    osThreadGetId                            0x080095cd   Thumb Code    18  rt_cmsis.o(i.osThreadGetId)
    osThreadYield                            0x080095e5   Thumb Code    18  rt_cmsis.o(i.osThreadYield)
    osTimerCall                              0x080095fd   Thumb Code     8  rt_cmsis.o(i.osTimerCall)
    osTimerCreate                            0x08009609   Thumb Code    36  rt_cmsis.o(i.osTimerCreate)
    osTimerStart                             0x08009635   Thumb Code    18  rt_cmsis.o(i.osTimerStart)
    osTimerThread                            0x0800964d   Thumb Code    38  rt_cmsis.o(i.osTimerThread)
    os_tick_init                             0x08009679   Thumb Code    32  rt_system.o(i.os_tick_init)
    os_tick_irqack                           0x080096a1   Thumb Code     2  rt_system.o(i.os_tick_irqack)
    rt_alloc_box                             0x08009809   Thumb Code    26  rt_membox.o(i.rt_alloc_box)
    rt_alloc_mem                             0x08009823   Thumb Code    62  rt_memory.o(i.rt_alloc_mem)
    rt_block                                 0x08009861   Thumb Code    48  rt_task.o(i.rt_block)
    rt_chk_robin                             0x08009899   Thumb Code    60  rt_robin.o(i.rt_chk_robin)
    rt_dec_dly                               0x080098e1   Thumb Code   102  rt_list.o(i.rt_dec_dly)
    rt_dispatch                              0x08009951   Thumb Code    60  rt_task.o(i.rt_dispatch)
    rt_dly_wait                              0x08009995   Thumb Code     6  rt_time.o(i.rt_dly_wait)
    rt_evt_clr                               0x0800999d   Thumb Code    22  rt_event.o(i.rt_evt_clr)
    rt_evt_psh                               0x080099b9   Thumb Code    76  rt_event.o(i.rt_evt_psh)
    rt_evt_set                               0x08009a09   Thumb Code    88  rt_event.o(i.rt_evt_set)
    rt_evt_wait                              0x08009a65   Thumb Code    56  rt_event.o(i.rt_evt_wait)
    rt_free_box                              0x08009aa1   Thumb Code    44  rt_membox.o(i.rt_free_box)
    rt_free_mem                              0x08009acd   Thumb Code    40  rt_memory.o(i.rt_free_mem)
    rt_get_first                             0x08009af5   Thumb Code    40  rt_list.o(i.rt_get_first)
    rt_get_same_rdy_prio                     0x08009b1d   Thumb Code    26  rt_list.o(i.rt_get_same_rdy_prio)
    rt_init_mem                              0x08009b91   Thumb Code    26  rt_memory.o(i.rt_init_mem)
    rt_init_robin                            0x08009bad   Thumb Code    14  rt_robin.o(i.rt_init_robin)
    rt_init_stack                            0x08009bc5   Thumb Code   118  hal_cm.o(i.rt_init_stack)
    rt_mbx_check                             0x08009c45   Thumb Code     8  rt_mailbox.o(i.rt_mbx_check)
    rt_mbx_init                              0x08009c4d   Thumb Code    26  rt_mailbox.o(i.rt_mbx_init)
    rt_mbx_psh                               0x08009c69   Thumb Code   236  rt_mailbox.o(i.rt_mbx_psh)
    rt_mbx_wait                              0x08009d59   Thumb Code   174  rt_mailbox.o(i.rt_mbx_wait)
    rt_mut_init                              0x08009e51   Thumb Code    16  rt_mutex.o(i.rt_mut_init)
    rt_mut_release                           0x08009e61   Thumb Code   208  rt_mutex.o(i.rt_mut_release)
    rt_mut_wait                              0x08009f39   Thumb Code   114  rt_mutex.o(i.rt_mut_wait)
    rt_pop_req                               0x08009fb1   Thumb Code   112  rt_system.o(i.rt_pop_req)
    rt_psh_req                               0x0800a02d   Thumb Code    22  rt_system.o(i.rt_psh_req)
    rt_psq_enq                               0x0800a04d   Thumb Code    88  rt_list.o(i.rt_psq_enq)
    rt_put_dly                               0x0800a0a9   Thumb Code    68  rt_list.o(i.rt_put_dly)
    rt_put_prio                              0x0800a0f1   Thumb Code    54  rt_list.o(i.rt_put_prio)
    rt_put_rdy_first                         0x0800a129   Thumb Code    14  rt_list.o(i.rt_put_rdy_first)
    rt_resort_prio                           0x0800a13d   Thumb Code    46  rt_list.o(i.rt_resort_prio)
    rt_ret_val                               0x0800a171   Thumb Code     6  hal_cm.o(i.rt_ret_val)
    rt_ret_val2                              0x0800a177   Thumb Code     8  hal_cm.o(i.rt_ret_val2)
    rt_rmv_dly                               0x0800a17f   Thumb Code    40  rt_list.o(i.rt_rmv_dly)
    rt_rmv_list                              0x0800a1a9   Thumb Code    44  rt_list.o(i.rt_rmv_list)
    rt_sem_init                              0x0800a1d9   Thumb Code    12  rt_semaphore.o(i.rt_sem_init)
    rt_sem_psh                               0x0800a1e5   Thumb Code    48  rt_semaphore.o(i.rt_sem_psh)
    rt_sem_send                              0x0800a219   Thumb Code    42  rt_semaphore.o(i.rt_sem_send)
    rt_sem_wait                              0x0800a245   Thumb Code    58  rt_semaphore.o(i.rt_sem_wait)
    rt_stk_check                             0x0800a285   Thumb Code    28  rt_system.o(i.rt_stk_check)
    rt_switch_req                            0x0800a2a9   Thumb Code    30  rt_task.o(i.rt_switch_req)
    rt_sys_init                              0x0800a2d1   Thumb Code   138  rt_task.o(i.rt_sys_init)
    rt_sys_start                             0x0800a39d   Thumb Code   110  rt_task.o(i.rt_sys_start)
    rt_systick                               0x0800a415   Thumb Code    50  rt_system.o(i.rt_systick)
    rt_tsk_create                            0x0800a4d9   Thumb Code   118  rt_task.o(i.rt_tsk_create)
    rt_tsk_delete                            0x0800a561   Thumb Code   352  rt_task.o(i.rt_tsk_delete)
    rt_tsk_pass                              0x0800a6dd   Thumb Code    38  rt_task.o(i.rt_tsk_pass)
    rt_tsk_prio                              0x0800a70d   Thumb Code   108  rt_task.o(i.rt_tsk_prio)
    rt_tsk_self                              0x0800a789   Thumb Code    12  rt_task.o(i.rt_tsk_self)
    svcDelay                                 0x0800a809   Thumb Code    18  rt_cmsis.o(i.svcDelay)
    svcKernelInitialize                      0x0800a81d   Thumb Code    80  rt_cmsis.o(i.svcKernelInitialize)
    svcKernelStart                           0x0800a88d   Thumb Code    62  rt_cmsis.o(i.svcKernelStart)
    svcMessageCreate                         0x0800a8d5   Thumb Code    36  rt_cmsis.o(i.svcMessageCreate)
    svcMessageGet                            0x0800a8f9   Thumb Code    58  rt_cmsis.o(i.svcMessageGet)
    svcMutexCreate                           0x0800a933   Thumb Code    28  rt_cmsis.o(i.svcMutexCreate)
    svcMutexRelease                          0x0800a94f   Thumb Code    34  rt_cmsis.o(i.svcMutexRelease)
    svcMutexWait                             0x0800a971   Thumb Code    58  rt_cmsis.o(i.svcMutexWait)
    svcSemaphoreCreate                       0x0800a9ab   Thumb Code    36  rt_cmsis.o(i.svcSemaphoreCreate)
    svcSemaphoreRelease                      0x0800a9cf   Thumb Code    40  rt_cmsis.o(i.svcSemaphoreRelease)
    svcSemaphoreWait                         0x0800a9f7   Thumb Code    50  rt_cmsis.o(i.svcSemaphoreWait)
    svcSignalClear                           0x0800aa29   Thumb Code    36  rt_cmsis.o(i.svcSignalClear)
    svcSignalSet                             0x0800aa4d   Thumb Code    36  rt_cmsis.o(i.svcSignalSet)
    svcSignalWait                            0x0800aa71   Thumb Code    80  rt_cmsis.o(i.svcSignalWait)
    svcThreadCreate                          0x0800aac5   Thumb Code    96  rt_cmsis.o(i.svcThreadCreate)
    svcThreadGetId                           0x0800ab31   Thumb Code    22  rt_cmsis.o(i.svcThreadGetId)
    svcThreadTerminate                       0x0800ab4d   Thumb Code    50  rt_cmsis.o(i.svcThreadTerminate)
    svcThreadYield                           0x0800ab85   Thumb Code    10  rt_cmsis.o(i.svcThreadYield)
    svcTimerCall                             0x0800ab8f   Thumb Code    24  rt_cmsis.o(i.svcTimerCall)
    svcTimerCreate                           0x0800aba9   Thumb Code    52  rt_cmsis.o(i.svcTimerCreate)
    svcTimerStart                            0x0800abe1   Thumb Code    96  rt_cmsis.o(i.svcTimerStart)
    sysTimerTick                             0x0800ac45   Thumb Code    84  rt_cmsis.o(i.sysTimerTick)
    os_mutex_def_uart_mutex                  0x0800bb48   Data           4  telnet_server.o(.constdata)
    os_thread_def_BlinkLed                   0x0800bb4c   Data          16  telnet_server.o(.constdata)
    os_thread_def_Display                    0x0800bb5c   Data          16  telnet_server.o(.constdata)
    os_thread_def_UpdateTimeDisplay          0x0800bb6c   Data          16  telnet_server.o(.constdata)
    daysmd                                   0x0800bf50   Data          12  rtc.o(.constdata)
    rtctxts                                  0x0800bf5c   Data          52  rtc.o(.constdata)
    GLCD_Font_16x24                          0x0800d4ec   Data          16  glcd_fonts.o(.constdata)
    Pin_LED                                  0x0800d4fc   Data          64  led_mcbstm32c.o(.constdata)
    os_maxtaskrun                            0x0800d53c   Data           2  rtx_conf_cm.o(.constdata)
    os_stackinfo                             0x0800d540   Data           4  rtx_conf_cm.o(.constdata)
    os_rrobin                                0x0800d544   Data           4  rtx_conf_cm.o(.constdata)
    os_trv                                   0x0800d548   Data           4  rtx_conf_cm.o(.constdata)
    os_flags                                 0x0800d54c   Data           1  rtx_conf_cm.o(.constdata)
    CMSIS_RTOS_API_Version                   0x0800d550   Data           4  rtx_conf_cm.o(.constdata)
    CMSIS_RTOS_RTX_Version                   0x0800d554   Data           4  rtx_conf_cm.o(.constdata)
    os_clockrate                             0x0800d558   Data           4  rtx_conf_cm.o(.constdata)
    os_timernum                              0x0800d55c   Data           4  rtx_conf_cm.o(.constdata)
    os_thread_def_main                       0x0800d560   Data          16  rtx_conf_cm.o(.constdata)
    mp_tcb_size                              0x0800d570   Data           2  rtx_conf_cm.o(.constdata)
    mp_stk_size                              0x0800d574   Data           4  rtx_conf_cm.o(.constdata)
    os_stack_sz                              0x0800d578   Data           4  rtx_conf_cm.o(.constdata)
    os_fifo_size                             0x0800d57c   Data           1  rtx_conf_cm.o(.constdata)
    os_thread_def_osTimerThread              0x0800d580   Data          16  rtx_conf_cm.o(.constdata)
    os_messageQ_def_osTimerMessageQ          0x0800d590   Data           8  rtx_conf_cm.o(.constdata)
    mp_tmr_size                              0x0800d598   Data           2  rtx_conf_cm.o(.constdata)
    Driver_ETH_PHY0                          0x0800d5a0   Data          32  phy_dp83848c.o(.constdata)
    Driver_ETH_MAC0                          0x0800d610   Data          68  emac_stm32f10x.o(.constdata)
    Driver_SPI3                              0x0800d6ac   Data          44  spi_stm32f10x.o(.constdata)
    os_mutex_def_net_lock                    0x0800d6d8   Data           4  net_config.o(.constdata)
    os_mutex_def_mem_lock                    0x0800d6dc   Data           4  net_config.o(.constdata)
    os_semaphore_def_eth0_lock               0x0800d6e0   Data           4  net_config.o(.constdata)
    os_timer_def_net_tick                    0x0800d6e4   Data           8  net_config.o(.constdata)
    os_thread_def_netCore_Thread             0x0800d6ec   Data          16  net_config.o(.constdata)
    os_thread_def_netETH_Thread              0x0800d6fc   Data          16  net_config.o(.constdata)
    net_sys_config                           0x0800d70c   Data          20  net_config.o(.constdata)
    net_eth0_config                          0x0800d77c   Data          24  net_config.o(.constdata)
    net_localm                               0x0800d794   Data          12  net_config.o(.constdata)
    net_localm6                              0x0800d7a0   Data          12  net_config.o(.constdata)
    net_udp_config                           0x0800d7ac   Data           8  net_config.o(.constdata)
    net_tcp_config                           0x0800d7b4   Data          20  net_config.o(.constdata)
    net_telnet_config                        0x0800d7c8   Data          28  net_config.o(.constdata)
    net_sys_func                             0x0800d7e4   Data          80  net_config.o(.constdata)
    net_mac_bcast                            0x0800d834   Data           6  net_eth.o(.constdata)
    net_addr6_all_dhcp_agents                0x0800d868   Data          16  net_dhcp6_client.o(.constdata)
    net_ping_payload                         0x0800d880   Data          18  net_ping.o(.constdata)
    net_addr_null                            0x0800d892   Data          16  net_addr.o(.constdata)
    net_addr4_bcast                          0x0800d8a2   Data           4  net_ip4.o(.constdata)
    net_addr4_loopback                       0x0800d8a6   Data           4  net_ip4.o(.constdata)
    net_addr6_all_nodes                      0x0800d8aa   Data          16  net_ip6.o(.constdata)
    net_addr6_loopback                       0x0800d8ba   Data          16  net_ip6.o(.constdata)
    net_addr6_all_routers                    0x0800d8ca   Data          16  net_ip6.o(.constdata)
    __ctype_categories                       0x0800d8da   Data          64  ctype_c.o(.constdata)
    Region$$Table$$Base                      0x0800dcd0   Number         0  anon$$obj.o(Region$$Table)
    Region$$Table$$Limit                     0x0800dcf0   Number         0  anon$$obj.o(Region$$Table)
    LEDrun                                   0x20000000   Data           1  telnet_server.o(.data)
    TID_Display                              0x20000004   Data           4  telnet_server.o(.data)
    TID_Led                                  0x20000008   Data           4  telnet_server.o(.data)
    TID_UpdateTimeDisplay                    0x2000000c   Data           4  telnet_server.o(.data)
    uart_mutex_id                            0x20000010   Data           4  telnet_server.o(.data)
    lcd_text                                 0x20000014   Data          42  telnet_server.o(.data)
    Light                                    0x20000040   Data           4  telnet_server_uif.o(.data)
    epoch                                    0x20000044   Data           4  telnet_server_uif.o(.data)
    udp_sock                                 0x20000048   Data           4  sntp.o(.data)
    sec                                      0x2000004c   Data           4  sntp.o(.data)
    m_tmr                                    0x20000060   Data           4  rtx_conf_cm.o(.data)
    osThreadId_osTimerThread                 0x20000064   Data           4  rtx_conf_cm.o(.data)
    osMessageQId_osTimerMessageQ             0x20000068   Data           4  rtx_conf_cm.o(.data)
    SystemCoreClock                          0x20000074   Data           4  system_stm32f10x.o(.data)
    AHBPrescTable                            0x20000078   Data          16  system_stm32f10x.o(.data)
    os_initialized                           0x20000098   Data           1  rt_cmsis.o(.data)
    os_running                               0x20000099   Data           1  rt_cmsis.o(.data)
    os_timer_head                            0x2000009c   Data           4  rt_cmsis.o(.data)
    os_tsk                                   0x200000c4   Data           8  rt_task.o(.data)
    os_tick_irqn                             0x200000d0   Data           4  rt_system.o(.data)
    os_time                                  0x200000d4   Data           4  rt_time.o(.data)
    dbg_msg                                  0x200000d8   Data           1  hal_cm.o(.data)
    os_robin                                 0x200000ec   Data           8  rt_robin.o(.data)
    __stdout                                 0x200000f4   Data           4  stdout.o(.data)
    os_mutex_cb_uart_mutex                   0x200000f8   Data          16  telnet_server.o(.bss)
    t                                        0x200001a8   Data          72  telnet_server_uif.o(.bss)
    InternetTime                             0x200001f0   Data          72  sntp.o(.bss)
    os_messageQ_q_osTimerMessageQ            0x20000238   Data          32  rtx_conf_cm.o(.bss)
    mp_tcb                                   0x20000258   Data         376  rtx_conf_cm.o(.bss)
    mp_stk                                   0x200003d0   Data        2064  rtx_conf_cm.o(.bss)
    os_stack_mem                             0x20000be0   Data        2584  rtx_conf_cm.o(.bss)
    os_fifo                                  0x200015f8   Data         132  rtx_conf_cm.o(.bss)
    os_active_TCB                            0x2000167c   Data          28  rtx_conf_cm.o(.bss)
    net_eth_control                          0x20007300   Data         148  net_eth.o(.bss)
    net_ping_control                         0x200073fc   Data          32  net_ping.o(.bss)
    net_sys_control                          0x2000742c   Data          36  net_sys.o(.bss)
    os_idle_TCB                              0x200074ac   Data          52  rt_task.o(.bss)
    os_rdy                                   0x200074e0   Data          24  rt_list.o(.bss)
    os_dly                                   0x200074f8   Data          24  rt_list.o(.bss)
    __initial_sp                             0x20007960   Data           0  startup_stm32f10x_cl.o(STACK)



==============================================================================

Memory Map of the image

  Image Entry point : 0x08000151

  Load Region LR_IROM1 (Base: 0x08000000, Size: 0x0000dde8, Max: 0x00040000, ABSOLUTE)

    Execution Region ER_IROM1 (Exec base: 0x08000000, Load base: 0x08000000, Size: 0x0000dcf0, Max: 0x00040000, ABSOLUTE)

    Exec Addr    Load Addr    Size         Type   Attr      Idx    E Section Name        Object

    0x08000000   0x08000000   0x00000150   Data   RO          563    RESET               startup_stm32f10x_cl.o
    0x08000150   0x08000150   0x00000000   Code   RO         2584  * .ARM.Collect$$$$00000000  mc_w.l(entry.o)
    0x08000150   0x08000150   0x00000004   Code   RO         2870    .ARM.Collect$$$$00000001  mc_w.l(entry2.o)
    0x08000154   0x08000154   0x00000004   Code   RO         2873    .ARM.Collect$$$$00000004  mc_w.l(entry5.o)
    0x08000158   0x08000158   0x00000000   Code   RO         2875    .ARM.Collect$$$$00000008  mc_w.l(entry7b.o)
    0x08000158   0x08000158   0x00000000   Code   RO         2877    .ARM.Collect$$$$0000000A  mc_w.l(entry8b.o)
    0x08000158   0x08000158   0x00000000   Code   RO         2878    .ARM.Collect$$$$0000000D  mc_w.l(entry10a.o)
    0x08000158   0x08000158   0x00000000   Code   RO         2880    .ARM.Collect$$$$0000000F  mc_w.l(entry11a.o)
    0x08000158   0x08000158   0x00000018   Code   RO          338    .ARM.Collect$$$$000000FF  rtx_conf_cm.o
    0x08000170   0x08000170   0x00000004   Code   RO         2871    .ARM.Collect$$$$00002712  mc_w.l(entry2.o)
    0x08000174   0x08000174   0x00000008   Code   RO         1699    .emb_text           Net_CM3_L.lib(net_sys.o)
    0x0800017c   0x0800017c   0x00000130   Code   RO         2571    .emb_text           RTX_CM3.lib(hal_cm3.o)
    0x080002ac   0x080002ac   0x000002fc   Code   RO            1    .text               telnet_server.o
    0x080005a8   0x080005a8   0x00000904   Code   RO           69    .text               telnet_server_uif.o
    0x08000eac   0x08000eac   0x00000428   Code   RO           90    .text               rtc.o
    0x080012d4   0x080012d4   0x0000009c   Code   RO          126    .text               backlight.o
    0x08001370   0x08001370   0x0000006c   Code   RO          172    .text               timer.o
    0x080013dc   0x080013dc   0x00000080   Code   RO          201    .text               sntp.o
    0x0800145c   0x0800145c   0x000000f8   Code   RO          230    .text               adc_mcbstm32c.o
    0x08001554   0x08001554   0x00000b3c   Code   RO          275    .text               glcd_mcbstm32c.o
    0x08002090   0x08002090   0x000000c0   Code   RO          311    .text               led_mcbstm32c.o
    0x08002150   0x08002150   0x00000004   Code   RO          339    .text               rtx_conf_cm.o
    0x08002154   0x08002154   0x000001cc   Code   RO          390    .text               phy_dp83848c.o
    0x08002320   0x08002320   0x0000073c   Code   RO          418    .text               emac_stm32f10x.o
    0x08002a5c   0x08002a5c   0x000008a6   Code   RO          467    .text               spi_stm32f10x.o
    0x08003302   0x08003302   0x00000002   PAD
    0x08003304   0x08003304   0x000003c8   Code   RO          507    .text               dma_stm32f10x.o
    0x080036cc   0x080036cc   0x000001fc   Code   RO          540    .text               gpio_stm32f10x.o
    0x080038c8   0x080038c8   0x00000024   Code   RO          564    .text               startup_stm32f10x_cl.o
    0x080038ec   0x080038ec   0x000001c4   Code   RO          571    .text               system_stm32f10x.o
    0x08003ab0   0x08003ab0   0x000000b8   Code   RO          598    .text               net_config.o
    0x08003b68   0x08003b68   0x00000062   Code   RO         2587    .text               mc_w.l(uldiv.o)
    0x08003bca   0x08003bca   0x00000040   Code   RO         2591    .text               mc_w.l(memmovea.o)
    0x08003c0a   0x08003c0a   0x00000024   Code   RO         2593    .text               mc_w.l(memseta.o)
    0x08003c2e   0x08003c2e   0x0000000e   Code   RO         2595    .text               mc_w.l(strlen.o)
    0x08003c3c   0x08003c3c   0x0000001c   Code   RO         2597    .text               mc_w.l(strcmp.o)
    0x08003c58   0x08003c58   0x0000001a   Code   RO         2599    .text               mc_w.l(memcmp.o)
    0x08003c72   0x08003c72   0x00000002   PAD
    0x08003c74   0x08003c74   0x00000038   Code   RO         2866    .text               mc_w.l(__0sscanf.o)
    0x08003cac   0x08003cac   0x0000014c   Code   RO         2868    .text               mc_w.l(_scanf_int.o)
    0x08003df8   0x08003df8   0x0000001e   Code   RO         2887    .text               mc_w.l(llshl.o)
    0x08003e16   0x08003e16   0x00000020   Code   RO         2889    .text               mc_w.l(llushr.o)
    0x08003e36   0x08003e36   0x0000001c   Code   RO         2891    .text               mc_w.l(_chval.o)
    0x08003e52   0x08003e52   0x00000002   PAD
    0x08003e54   0x08003e54   0x00000028   Code   RO         2893    .text               mc_w.l(scanf_char.o)
    0x08003e7c   0x08003e7c   0x00000040   Code   RO         2895    .text               mc_w.l(_sgetc.o)
    0x08003ebc   0x08003ebc   0x00000024   Code   RO         2908    .text               mc_w.l(init.o)
    0x08003ee0   0x08003ee0   0x00000000   Code   RO         2910    .text               mc_w.l(semi.o)
    0x08003ee0   0x08003ee0   0x0000000a   Code   RO         2913    .text               mc_w.l(isspace_c.o)
    0x08003eea   0x08003eea   0x00000002   PAD
    0x08003eec   0x08003eec   0x0000032c   Code   RO         2915    .text               mc_w.l(_scanf.o)
    0x08004218   0x08004218   0x00000000   Code   RO         2917    .text               mc_w.l(iusesemip.o)
    0x08004218   0x08004218   0x00000028   Code   RO         2920    .text               mc_w.l(ctype_c.o)
    0x08004240   0x08004240   0x00000004   Code   RO         2581    SVC_TABLE           RTX_CM3.lib(svc_table.o)
    0x08004244   0x08004244   0x00000020   Code   RO         2812    i.__0printf$8       mc_w.l(printf8.o)
    0x08004264   0x08004264   0x00000028   Code   RO         2814    i.__0sprintf$8      mc_w.l(printf8.o)
    0x0800428c   0x0800428c   0x0000000e   Code   RO         2924    i.__scatterload_copy  mc_w.l(handlers.o)
    0x0800429a   0x0800429a   0x00000002   Code   RO         2925    i.__scatterload_null  mc_w.l(handlers.o)
    0x0800429c   0x0800429c   0x0000000e   Code   RO         2926    i.__scatterload_zeroinit  mc_w.l(handlers.o)
    0x080042aa   0x080042aa   0x00000046   Code   RO         2250    i._init_box         RTX_CM3.lib(rt_membox.o)
    0x080042f0   0x080042f0   0x00000410   Code   RO         2819    i._printf_core      mc_w.l(printf8.o)
    0x08004700   0x08004700   0x00000024   Code   RO         2820    i._printf_post_padding  mc_w.l(printf8.o)
    0x08004724   0x08004724   0x0000002e   Code   RO         2821    i._printf_pre_padding  mc_w.l(printf8.o)
    0x08004752   0x08004752   0x0000000a   Code   RO         2823    i._sputc            mc_w.l(printf8.o)
    0x0800475c   0x0800475c   0x00000098   Code   RO         1347    i.arp_cache_alloc   Net_CM3_L.lib(net_arp.o)
    0x080047f4   0x080047f4   0x00000040   Code   RO         1348    i.arp_is_cacheable  Net_CM3_L.lib(net_arp.o)
    0x08004834   0x08004834   0x00000040   Code   RO         1349    i.arp_probe_run     Net_CM3_L.lib(net_arp.o)
    0x08004874   0x08004874   0x00000080   Code   RO         1350    i.arp_proc_response  Net_CM3_L.lib(net_arp.o)
    0x080048f4   0x080048f4   0x0000008c   Code   RO         1351    i.arp_send_reply    Net_CM3_L.lib(net_arp.o)
    0x08004980   0x08004980   0x000000b8   Code   RO         1352    i.arp_send_request  Net_CM3_L.lib(net_arp.o)
    0x08004a38   0x08004a38   0x00000070   Code   RO         1572    i.check_client_id   Net_CM3_L.lib(net_dhcp6_client.o)
    0x08004aa8   0x08004aa8   0x00000028   Code   RO         2513    i.crc32_8bit        Net_CM3_L.lib(net_common.o)
    0x08004ad0   0x08004ad0   0x00000030   Code   RO         2303    i.dbg_init          RTX_CM3.lib(hal_cm.o)
    0x08004b00   0x08004b00   0x00000020   Code   RO         2304    i.dbg_task_notify   RTX_CM3.lib(hal_cm.o)
    0x08004b20   0x08004b20   0x00000010   Code   RO         2305    i.dbg_task_switch   RTX_CM3.lib(hal_cm.o)
    0x08004b30   0x08004b30   0x0000003c   Code   RO         1573    i.dhcp6_client_start  Net_CM3_L.lib(net_dhcp6_client.o)
    0x08004b6c   0x08004b6c   0x000002ec   Code   RO         1575    i.dhcp6_listener    Net_CM3_L.lib(net_dhcp6_client.o)
    0x08004e58   0x08004e58   0x000001dc   Code   RO         1576    i.dhcp6_send_message  Net_CM3_L.lib(net_dhcp6_client.o)
    0x08005034   0x08005034   0x000000c4   Code   RO         1295    i.eth_check_link    Net_CM3_L.lib(net_eth.o)
    0x080050f8   0x080050f8   0x0000000c   Code   RO         1296    i.eth_lock          Net_CM3_L.lib(net_eth.o)
    0x08005104   0x08005104   0x0000001e   Code   RO         1297    i.eth_make_mcast4   Net_CM3_L.lib(net_eth.o)
    0x08005122   0x08005122   0x0000001a   Code   RO         1298    i.eth_make_mcast6   Net_CM3_L.lib(net_eth.o)
    0x0800513c   0x0800513c   0x0000001c   Code   RO         1299    i.eth_mtu_limit     Net_CM3_L.lib(net_eth.o)
    0x08005158   0x08005158   0x00000014   Code   RO         1300    i.eth_notify        Net_CM3_L.lib(net_eth.o)
    0x0800516c   0x0800516c   0x00000044   Code   RO         1301    i.eth_opt_len       Net_CM3_L.lib(net_eth.o)
    0x080051b0   0x080051b0   0x00000088   Code   RO         1302    i.eth_receive       Net_CM3_L.lib(net_eth.o)
    0x08005238   0x08005238   0x0000000c   Code   RO         1303    i.eth_unlock        Net_CM3_L.lib(net_eth.o)
    0x08005244   0x08005244   0x00000012   Code   RO         2882    i.fputc             mc_w.l(fputc.o)
    0x08005256   0x08005256   0x0000006e   Code   RO         1618    i.get_hist          Net_CM3_L.lib(net_telnet_server.o)
    0x080052c4   0x080052c4   0x0000005c   Code   RO         1577    i.get_tout          Net_CM3_L.lib(net_dhcp6_client.o)
    0x08005320   0x08005320   0x0000000a   Code   RO         2405    i.ip4_get_chksum    Net_CM3_L.lib(net_ip4.o)
    0x0800532a   0x0800532a   0x00000002   PAD
    0x0800532c   0x0800532c   0x0000001c   Code   RO         2406    i.ip4_get_mtu       Net_CM3_L.lib(net_ip4.o)
    0x08005348   0x08005348   0x00000080   Code   RO         2407    i.ip4_get_route     Net_CM3_L.lib(net_ip4.o)
    0x080053c8   0x080053c8   0x00000034   Code   RO         1737    i.ip4_ntoa          Net_CM3_L.lib(net_addr.o)
    0x080053fc   0x080053fc   0x00000038   Code   RO         2451    i.ip6_get_route     Net_CM3_L.lib(net_ip6.o)
    0x08005434   0x08005434   0x000000d4   Code   RO         1738    i.ip6_ntoa          Net_CM3_L.lib(net_addr.o)
    0x08005508   0x08005508   0x0000002a   Code   RO          676    i.isrMessageGet     RTX_CM3.lib(rt_cmsis.o)
    0x08005532   0x08005532   0x0000002c   Code   RO          677    i.isrMessagePut     RTX_CM3.lib(rt_cmsis.o)
    0x0800555e   0x0800555e   0x00000028   Code   RO          678    i.isrSemaphoreRelease  RTX_CM3.lib(rt_cmsis.o)
    0x08005586   0x08005586   0x00000024   Code   RO          679    i.isrSignalSet      RTX_CM3.lib(rt_cmsis.o)
    0x080055aa   0x080055aa   0x00000002   PAD
    0x080055ac   0x080055ac   0x00000028   Code   RO         1974    i.isr_evt_set       RTX_CM3.lib(rt_event.o)
    0x080055d4   0x080055d4   0x00000056   Code   RO         2096    i.isr_mbx_receive   RTX_CM3.lib(rt_mailbox.o)
    0x0800562a   0x0800562a   0x0000000e   Code   RO         2097    i.isr_mbx_send      RTX_CM3.lib(rt_mailbox.o)
    0x08005638   0x08005638   0x00000010   Code   RO         2144    i.isr_sem_send      RTX_CM3.lib(rt_semaphore.o)
    0x08005648   0x08005648   0x0000000c   Code   RO         2492    i.mem_lock          Net_CM3_L.lib(net_mem.o)
    0x08005654   0x08005654   0x0000000c   Code   RO         2493    i.mem_unlock        Net_CM3_L.lib(net_mem.o)
    0x08005660   0x08005660   0x00000160   Code   RO         1606    i.nbns_listener     Net_CM3_L.lib(net_nbns_client.o)
    0x080057c0   0x080057c0   0x0000009c   Code   RO         2351    i.ndp_cache_add     Net_CM3_L.lib(net_ndp.o)
    0x0800585c   0x0800585c   0x00000084   Code   RO         2352    i.ndp_cache_alloc   Net_CM3_L.lib(net_ndp.o)
    0x080058e0   0x080058e0   0x0000002c   Code   RO         2353    i.ndp_check_frame   Net_CM3_L.lib(net_ndp.o)
    0x0800590c   0x0800590c   0x0000005c   Code   RO         2354    i.ndp_is_onlink     Net_CM3_L.lib(net_ndp.o)
    0x08005968   0x08005968   0x00000012   Code   RO         2355    i.ndp_next_opt      Net_CM3_L.lib(net_ndp.o)
    0x0800597a   0x0800597a   0x00000002   PAD
    0x0800597c   0x0800597c   0x000000b8   Code   RO         2356    i.ndp_prefix_add    Net_CM3_L.lib(net_ndp.o)
    0x08005a34   0x08005a34   0x00000040   Code   RO         2357    i.ndp_probe_run     Net_CM3_L.lib(net_ndp.o)
    0x08005a74   0x08005a74   0x0000007c   Code   RO         2358    i.ndp_proc_response  Net_CM3_L.lib(net_ndp.o)
    0x08005af0   0x08005af0   0x0000003c   Code   RO         2359    i.ndp_router_remove  Net_CM3_L.lib(net_ndp.o)
    0x08005b2c   0x08005b2c   0x0000006c   Code   RO         2360    i.ndp_send_reply    Net_CM3_L.lib(net_ndp.o)
    0x08005b98   0x08005b98   0x00000084   Code   RO         2361    i.ndp_send_request  Net_CM3_L.lib(net_ndp.o)
    0x08005c1c   0x08005c1c   0x000000fc   Code   RO         2362    i.ndp_slaac_run     Net_CM3_L.lib(net_ndp.o)
    0x08005d18   0x08005d18   0x00000058   Code   RO         1700    i.netCore_Thread    Net_CM3_L.lib(net_sys.o)
    0x08005d70   0x08005d70   0x00000002   Code   RO         1580    i.netDHCP6_Notify   Net_CM3_L.lib(net_dhcp6_client.o)
    0x08005d72   0x08005d72   0x00000002   Code   RO         1304    i.netETH_Notify     Net_CM3_L.lib(net_eth.o)
    0x08005d74   0x08005d74   0x00000002   Code   RO         1305    i.netETH_ReceiveRaw  Net_CM3_L.lib(net_eth.o)
    0x08005d76   0x08005d76   0x00000002   PAD
    0x08005d78   0x08005d78   0x0000003c   Code   RO         1307    i.netETH_Thread     Net_CM3_L.lib(net_eth.o)
    0x08005db4   0x08005db4   0x00000068   Code   RO         1701    i.netIF_GetOption   Net_CM3_L.lib(net_sys.o)
    0x08005e1c   0x08005e1c   0x00000032   Code   RO         1741    i.netIP_ntoa        Net_CM3_L.lib(net_addr.o)
    0x08005e4e   0x08005e4e   0x00000002   PAD
    0x08005e50   0x08005e50   0x00000078   Code   RO         1704    i.netInitialize     Net_CM3_L.lib(net_sys.o)
    0x08005ec8   0x08005ec8   0x0000007c   Code   RO         1742    i.netMAC_aton       Net_CM3_L.lib(net_addr.o)
    0x08005f44   0x08005f44   0x00000004   Code   RO         1463    i.netTCP_GetLocalPort  Net_CM3_L.lib(net_tcp.o)
    0x08005f48   0x08005f48   0x00000020   Code   RO         1465    i.netTCP_GetPeer    Net_CM3_L.lib(net_tcp.o)
    0x08005f68   0x08005f68   0x00000004   Code   RO         1467    i.netTCP_GetState   Net_CM3_L.lib(net_tcp.o)
    0x08005f6c   0x08005f6c   0x00000004   Code   RO         1468    i.netTCP_GetTimer   Net_CM3_L.lib(net_tcp.o)
    0x08005f70   0x08005f70   0x00000004   Code   RO         1619    i.netTELNETs_AcceptClient  Net_CM3_L.lib(net_telnet_server.o)
    0x08005f74   0x08005f74   0x0000002e   Code   RO         1620    i.netTELNETs_CheckCommand  Net_CM3_L.lib(net_telnet_server.o)
    0x08005fa2   0x08005fa2   0x00000004   Code   RO         1621    i.netTELNETs_CheckPassword  Net_CM3_L.lib(net_telnet_server.o)
    0x08005fa6   0x08005fa6   0x00000004   Code   RO         1622    i.netTELNETs_CheckUsername  Net_CM3_L.lib(net_telnet_server.o)
    0x08005faa   0x08005faa   0x00000002   PAD
    0x08005fac   0x08005fac   0x00000030   Code   RO         1623    i.netTELNETs_GetClient  Net_CM3_L.lib(net_telnet_server.o)
    0x08005fdc   0x08005fdc   0x0000000c   Code   RO         1624    i.netTELNETs_GetPassword  Net_CM3_L.lib(net_telnet_server.o)
    0x08005fe8   0x08005fe8   0x0000000c   Code   RO         1629    i.netTELNETs_LoginActive  Net_CM3_L.lib(net_telnet_server.o)
    0x08005ff4   0x08005ff4   0x00000048   Code   RO         1631    i.netTELNETs_RepeatCommand  Net_CM3_L.lib(net_telnet_server.o)
    0x0800603c   0x0800603c   0x00000038   Code   RO         1634    i.netTELNETs_SetPassword  Net_CM3_L.lib(net_telnet_server.o)
    0x08006074   0x08006074   0x00000004   Code   RO         1410    i.netUDP_GetBuffer  Net_CM3_L.lib(net_udp.o)
    0x08006078   0x08006078   0x00000018   Code   RO         1412    i.netUDP_GetSocket  Net_CM3_L.lib(net_udp.o)
    0x08006090   0x08006090   0x0000001c   Code   RO         1413    i.netUDP_Open       Net_CM3_L.lib(net_udp.o)
    0x080060ac   0x080060ac   0x00000028   Code   RO         1415    i.netUDP_Send       Net_CM3_L.lib(net_udp.o)
    0x080060d4   0x080060d4   0x00000068   Code   RO         1744    i.net_addr4_aton    Net_CM3_L.lib(net_addr.o)
    0x0800613c   0x0800613c   0x0000001a   Code   RO         1745    i.net_addr4_is_subnet  Net_CM3_L.lib(net_addr.o)
    0x08006156   0x08006156   0x00000002   PAD
    0x08006158   0x08006158   0x000000f4   Code   RO         1747    i.net_addr6_aton    Net_CM3_L.lib(net_addr.o)
    0x0800624c   0x0800624c   0x00000028   Code   RO         1748    i.net_addr6_comp    Net_CM3_L.lib(net_addr.o)
    0x08006274   0x08006274   0x00000012   Code   RO         1749    i.net_addr6_copy    Net_CM3_L.lib(net_addr.o)
    0x08006286   0x08006286   0x00000002   PAD
    0x08006288   0x08006288   0x0000004c   Code   RO         1750    i.net_addr6_create  Net_CM3_L.lib(net_addr.o)
    0x080062d4   0x080062d4   0x0000002c   Code   RO         1751    i.net_addr6_get_solicited  Net_CM3_L.lib(net_addr.o)
    0x08006300   0x08006300   0x00000018   Code   RO         1752    i.net_addr6_is_linklocal  Net_CM3_L.lib(net_addr.o)
    0x08006318   0x08006318   0x0000006c   Code   RO         1753    i.net_addr6_is_onlink  Net_CM3_L.lib(net_addr.o)
    0x08006384   0x08006384   0x00000048   Code   RO         1754    i.net_addr6_is_solicited  Net_CM3_L.lib(net_addr.o)
    0x080063cc   0x080063cc   0x00000018   Code   RO         1755    i.net_addr6_is_unspec  Net_CM3_L.lib(net_addr.o)
    0x080063e4   0x080063e4   0x0000001a   Code   RO         1758    i.net_addr_copy     Net_CM3_L.lib(net_addr.o)
    0x080063fe   0x080063fe   0x0000000e   Code   RO         1760    i.net_addr_get_local  Net_CM3_L.lib(net_addr.o)
    0x0800640c   0x0800640c   0x00000022   Code   RO         1761    i.net_addr_is_unspec  Net_CM3_L.lib(net_addr.o)
    0x0800642e   0x0800642e   0x00000002   PAD
    0x08006430   0x08006430   0x000000b0   Code   RO         1358    i.net_arp_cache_add  Net_CM3_L.lib(net_arp.o)
    0x080064e0   0x080064e0   0x00000098   Code   RO         1359    i.net_arp_cache_early  Net_CM3_L.lib(net_arp.o)
    0x08006578   0x08006578   0x000000b4   Code   RO         1360    i.net_arp_cache_find  Net_CM3_L.lib(net_arp.o)
    0x0800662c   0x0800662c   0x00000038   Code   RO         1362    i.net_arp_init      Net_CM3_L.lib(net_arp.o)
    0x08006664   0x08006664   0x00000030   Code   RO         1363    i.net_arp_notify    Net_CM3_L.lib(net_arp.o)
    0x08006694   0x08006694   0x00000148   Code   RO         1365    i.net_arp_process   Net_CM3_L.lib(net_arp.o)
    0x080067dc   0x080067dc   0x000000fc   Code   RO         1366    i.net_arp_run       Net_CM3_L.lib(net_arp.o)
    0x080068d8   0x080068d8   0x00000018   Code   RO         2518    i.net_crc32_buf     Net_CM3_L.lib(net_common.o)
    0x080068f0   0x080068f0   0x00000054   Code   RO         1581    i.net_dhcp6_client_init  Net_CM3_L.lib(net_dhcp6_client.o)
    0x08006944   0x08006944   0x00000204   Code   RO         1582    i.net_dhcp6_client_run  Net_CM3_L.lib(net_dhcp6_client.o)
    0x08006b48   0x08006b48   0x000000c8   Code   RO         1309    i.net_eth_get_option  Net_CM3_L.lib(net_eth.o)
    0x08006c10   0x08006c10   0x00000220   Code   RO         1310    i.net_eth_iface_init  Net_CM3_L.lib(net_eth.o)
    0x08006e30   0x08006e30   0x00000194   Code   RO         1311    i.net_eth_iface_run  Net_CM3_L.lib(net_eth.o)
    0x08006fc4   0x08006fc4   0x00000020   Code   RO         1312    i.net_eth_is_my_addr  Net_CM3_L.lib(net_eth.o)
    0x08006fe4   0x08006fe4   0x0000003c   Code   RO         1313    i.net_eth_output    Net_CM3_L.lib(net_eth.o)
    0x08007020   0x08007020   0x000000dc   Code   RO         1314    i.net_eth_send_frame  Net_CM3_L.lib(net_eth.o)
    0x080070fc   0x080070fc   0x00000108   Code   RO         1316    i.net_eth_update_filter  Net_CM3_L.lib(net_eth.o)
    0x08007204   0x08007204   0x00000130   Code   RO         2480    i.net_icmp6_process  Net_CM3_L.lib(net_icmp6.o)
    0x08007334   0x08007334   0x0000005c   Code   RO         2481    i.net_icmp6_send    Net_CM3_L.lib(net_icmp6.o)
    0x08007390   0x08007390   0x00000050   Code   RO         2482    i.net_icmp6_send_echo  Net_CM3_L.lib(net_icmp6.o)
    0x080073e0   0x080073e0   0x000000f4   Code   RO         2441    i.net_icmp_process  Net_CM3_L.lib(net_icmp.o)
    0x080074d4   0x080074d4   0x00000080   Code   RO         2442    i.net_icmp_send_echo  Net_CM3_L.lib(net_icmp.o)
    0x08007554   0x08007554   0x0000004c   Code   RO         2408    i.net_ip4_checksum  Net_CM3_L.lib(net_ip4.o)
    0x080075a0   0x080075a0   0x000000d4   Code   RO         2409    i.net_ip4_chk_frame  Net_CM3_L.lib(net_ip4.o)
    0x08007674   0x08007674   0x00000032   Code   RO         2410    i.net_ip4_chksum_buf  Net_CM3_L.lib(net_ip4.o)
    0x080076a6   0x080076a6   0x00000002   PAD
    0x080076a8   0x080076a8   0x00000044   Code   RO         2412    i.net_ip4_get_local  Net_CM3_L.lib(net_ip4.o)
    0x080076ec   0x080076ec   0x00000044   Code   RO         2413    i.net_ip4_init      Net_CM3_L.lib(net_ip4.o)
    0x08007730   0x08007730   0x0000002c   Code   RO         2414    i.net_ip4_is_subcast  Net_CM3_L.lib(net_ip4.o)
    0x0800775c   0x0800775c   0x00000010   Code   RO         2415    i.net_ip4_reass_frame  Net_CM3_L.lib(net_ip4.o)
    0x0800776c   0x0800776c   0x00000140   Code   RO         2416    i.net_ip4_send_frame  Net_CM3_L.lib(net_ip4.o)
    0x080078ac   0x080078ac   0x00000058   Code   RO         2418    i.net_ip4_tx_offload  Net_CM3_L.lib(net_ip4.o)
    0x08007904   0x08007904   0x00000052   Code   RO         2452    i.net_ip6_checksum  Net_CM3_L.lib(net_ip6.o)
    0x08007956   0x08007956   0x00000002   PAD
    0x08007958   0x08007958   0x000000a4   Code   RO         2453    i.net_ip6_chk_frame  Net_CM3_L.lib(net_ip6.o)
    0x080079fc   0x080079fc   0x0000005c   Code   RO         2455    i.net_ip6_get_local  Net_CM3_L.lib(net_ip6.o)
    0x08007a58   0x08007a58   0x00000034   Code   RO         2456    i.net_ip6_init      Net_CM3_L.lib(net_ip6.o)
    0x08007a8c   0x08007a8c   0x000000b4   Code   RO         2457    i.net_ip6_send_frame  Net_CM3_L.lib(net_ip6.o)
    0x08007b40   0x08007b40   0x0000000c   Code   RO         2459    i.net_ip6_tx_netif  Net_CM3_L.lib(net_ip6.o)
    0x08007b4c   0x08007b4c   0x00000030   Code   RO         2460    i.net_ip6_tx_offload  Net_CM3_L.lib(net_ip6.o)
    0x08007b7c   0x08007b7c   0x00000028   Code   RO         1396    i.net_loop_iface_init  Net_CM3_L.lib(net_loop.o)
    0x08007ba4   0x08007ba4   0x00000094   Code   RO         1397    i.net_loop_iface_run  Net_CM3_L.lib(net_loop.o)
    0x08007c38   0x08007c38   0x00000048   Code   RO         1398    i.net_loop_send_frame  Net_CM3_L.lib(net_loop.o)
    0x08007c80   0x08007c80   0x0000008c   Code   RO         2494    i.net_mem_alloc     Net_CM3_L.lib(net_mem.o)
    0x08007d0c   0x08007d0c   0x0000001c   Code   RO         2495    i.net_mem_avail     Net_CM3_L.lib(net_mem.o)
    0x08007d28   0x08007d28   0x0000006c   Code   RO         2496    i.net_mem_free      Net_CM3_L.lib(net_mem.o)
    0x08007d94   0x08007d94   0x00000060   Code   RO         2497    i.net_mem_init      Net_CM3_L.lib(net_mem.o)
    0x08007df4   0x08007df4   0x00000038   Code   RO         2498    i.net_mem_shrink    Net_CM3_L.lib(net_mem.o)
    0x08007e2c   0x08007e2c   0x0000002c   Code   RO         1607    i.net_nbns_client_init  Net_CM3_L.lib(net_nbns_client.o)
    0x08007e58   0x08007e58   0x00000094   Code   RO         2367    i.net_ndp_cache_find  Net_CM3_L.lib(net_ndp.o)
    0x08007eec   0x08007eec   0x00000054   Code   RO         2369    i.net_ndp_cache_refresh  Net_CM3_L.lib(net_ndp.o)
    0x08007f40   0x08007f40   0x00000050   Code   RO         2371    i.net_ndp_init      Net_CM3_L.lib(net_ndp.o)
    0x08007f90   0x08007f90   0x0000022c   Code   RO         2372    i.net_ndp_process   Net_CM3_L.lib(net_ndp.o)
    0x080081bc   0x080081bc   0x000000d0   Code   RO         2373    i.net_ndp_run       Net_CM3_L.lib(net_ndp.o)
    0x0800828c   0x0800828c   0x00000010   Code   RO         1684    i.net_ping_client_init  Net_CM3_L.lib(net_ping.o)
    0x0800829c   0x0800829c   0x00000040   Code   RO         1685    i.net_ping_client_run  Net_CM3_L.lib(net_ping.o)
    0x080082dc   0x080082dc   0x0000001c   Code   RO         1708    i.net_rand32        Net_CM3_L.lib(net_sys.o)
    0x080082f8   0x080082f8   0x00000012   Code   RO         2522    i.net_strcpy        Net_CM3_L.lib(net_common.o)
    0x0800830a   0x0800830a   0x0000001c   Code   RO         2524    i.net_strtoupper    Net_CM3_L.lib(net_common.o)
    0x08008326   0x08008326   0x00000002   PAD
    0x08008328   0x08008328   0x0000000c   Code   RO         1709    i.net_sys_lock      Net_CM3_L.lib(net_sys.o)
    0x08008334   0x08008334   0x00000014   Code   RO         1710    i.net_sys_tick      Net_CM3_L.lib(net_sys.o)
    0x08008348   0x08008348   0x0000000c   Code   RO         1711    i.net_sys_unlock    Net_CM3_L.lib(net_sys.o)
    0x08008354   0x08008354   0x00000020   Code   RO         1712    i.net_sys_wakeup    Net_CM3_L.lib(net_sys.o)
    0x08008374   0x08008374   0x000000ac   Code   RO         1478    i.net_tcp_close     Net_CM3_L.lib(net_tcp.o)
    0x08008420   0x08008420   0x0000001e   Code   RO         1481    i.net_tcp_get_buf   Net_CM3_L.lib(net_tcp.o)
    0x0800843e   0x0800843e   0x00000002   PAD
    0x08008440   0x08008440   0x00000034   Code   RO         1482    i.net_tcp_get_local_port  Net_CM3_L.lib(net_tcp.o)
    0x08008474   0x08008474   0x00000028   Code   RO         1483    i.net_tcp_get_mss   Net_CM3_L.lib(net_tcp.o)
    0x0800849c   0x0800849c   0x00000054   Code   RO         1484    i.net_tcp_get_peer  Net_CM3_L.lib(net_tcp.o)
    0x080084f0   0x080084f0   0x0000004c   Code   RO         1485    i.net_tcp_get_socket  Net_CM3_L.lib(net_tcp.o)
    0x0800853c   0x0800853c   0x0000002c   Code   RO         1486    i.net_tcp_get_state  Net_CM3_L.lib(net_tcp.o)
    0x08008568   0x08008568   0x00000034   Code   RO         1487    i.net_tcp_get_timer  Net_CM3_L.lib(net_tcp.o)
    0x0800859c   0x0800859c   0x0000007c   Code   RO         1488    i.net_tcp_listen    Net_CM3_L.lib(net_tcp.o)
    0x08008618   0x08008618   0x0000000c   Code   RO         1489    i.net_tcp_ntoa      Net_CM3_L.lib(net_tcp.o)
    0x08008624   0x08008624   0x0000050e   Code   RO         1490    i.net_tcp_process   Net_CM3_L.lib(net_tcp.o)
    0x08008b32   0x08008b32   0x00000002   PAD
    0x08008b34   0x08008b34   0x000000e8   Code   RO         1494    i.net_tcp_send      Net_CM3_L.lib(net_tcp.o)
    0x08008c1c   0x08008c1c   0x000000a4   Code   RO         1495    i.net_tcp_set_option  Net_CM3_L.lib(net_tcp.o)
    0x08008cc0   0x08008cc0   0x00000014   Code   RO         1496    i.net_tcp_socket_init  Net_CM3_L.lib(net_tcp.o)
    0x08008cd4   0x08008cd4   0x000002f8   Code   RO         1497    i.net_tcp_socket_run  Net_CM3_L.lib(net_tcp.o)
    0x08008fcc   0x08008fcc   0x000000a0   Code   RO         1639    i.net_telnet_server_init  Net_CM3_L.lib(net_telnet_server.o)
    0x0800906c   0x0800906c   0x00000014   Code   RO         1640    i.net_telnet_server_run  Net_CM3_L.lib(net_telnet_server.o)
    0x08009080   0x08009080   0x0000001e   Code   RO         1419    i.net_udp_get_buf   Net_CM3_L.lib(net_udp.o)
    0x0800909e   0x0800909e   0x00000002   PAD
    0x080090a0   0x080090a0   0x0000004c   Code   RO         1421    i.net_udp_get_socket  Net_CM3_L.lib(net_udp.o)
    0x080090ec   0x080090ec   0x0000006c   Code   RO         1423    i.net_udp_open      Net_CM3_L.lib(net_udp.o)
    0x08009158   0x08009158   0x000000e4   Code   RO         1424    i.net_udp_process   Net_CM3_L.lib(net_udp.o)
    0x0800923c   0x0800923c   0x00000178   Code   RO         1426    i.net_udp_send      Net_CM3_L.lib(net_udp.o)
    0x080093b4   0x080093b4   0x00000014   Code   RO         1428    i.net_udp_socket_init  Net_CM3_L.lib(net_udp.o)
    0x080093c8   0x080093c8   0x00000018   Code   RO          680    i.osDelay           RTX_CM3.lib(rt_cmsis.o)
    0x080093e0   0x080093e0   0x00000024   Code   RO          681    i.osKernelInitialize  RTX_CM3.lib(rt_cmsis.o)
    0x08009404   0x08009404   0x0000006c   Code   RO          683    i.osKernelStart     RTX_CM3.lib(rt_cmsis.o)
    0x08009470   0x08009470   0x00000018   Code   RO          692    i.osMessageGet      RTX_CM3.lib(rt_cmsis.o)
    0x08009488   0x08009488   0x0000002c   Code   RO          694    i.osMutexCreate     RTX_CM3.lib(rt_cmsis.o)
    0x080094b4   0x080094b4   0x00000018   Code   RO          696    i.osMutexRelease    RTX_CM3.lib(rt_cmsis.o)
    0x080094cc   0x080094cc   0x00000018   Code   RO          697    i.osMutexWait       RTX_CM3.lib(rt_cmsis.o)
    0x080094e4   0x080094e4   0x0000002c   Code   RO          702    i.osSemaphoreCreate  RTX_CM3.lib(rt_cmsis.o)
    0x08009510   0x08009510   0x00000018   Code   RO          704    i.osSemaphoreRelease  RTX_CM3.lib(rt_cmsis.o)
    0x08009528   0x08009528   0x00000018   Code   RO          705    i.osSemaphoreWait   RTX_CM3.lib(rt_cmsis.o)
    0x08009540   0x08009540   0x00000018   Code   RO          706    i.osSignalClear     RTX_CM3.lib(rt_cmsis.o)
    0x08009558   0x08009558   0x00000018   Code   RO          707    i.osSignalSet       RTX_CM3.lib(rt_cmsis.o)
    0x08009570   0x08009570   0x00000018   Code   RO          708    i.osSignalWait      RTX_CM3.lib(rt_cmsis.o)
    0x08009588   0x08009588   0x0000002c   Code   RO          709    i.osThreadCreate    RTX_CM3.lib(rt_cmsis.o)
    0x080095b4   0x080095b4   0x00000018   Code   RO          710    i.osThreadExit      RTX_CM3.lib(rt_cmsis.o)
    0x080095cc   0x080095cc   0x00000018   Code   RO          711    i.osThreadGetId     RTX_CM3.lib(rt_cmsis.o)
    0x080095e4   0x080095e4   0x00000018   Code   RO          715    i.osThreadYield     RTX_CM3.lib(rt_cmsis.o)
    0x080095fc   0x080095fc   0x0000000c   Code   RO          716    i.osTimerCall       RTX_CM3.lib(rt_cmsis.o)
    0x08009608   0x08009608   0x0000002c   Code   RO          717    i.osTimerCreate     RTX_CM3.lib(rt_cmsis.o)
    0x08009634   0x08009634   0x00000018   Code   RO          719    i.osTimerStart      RTX_CM3.lib(rt_cmsis.o)
    0x0800964c   0x0800964c   0x0000002c   Code   RO          721    i.osTimerThread     RTX_CM3.lib(rt_cmsis.o)
    0x08009678   0x08009678   0x00000028   Code   RO         1884    i.os_tick_init      RTX_CM3.lib(rt_system.o)
    0x080096a0   0x080096a0   0x00000002   Code   RO         1885    i.os_tick_irqack    RTX_CM3.lib(rt_system.o)
    0x080096a2   0x080096a2   0x00000002   PAD
    0x080096a4   0x080096a4   0x0000001c   Code   RO         1686    i.ping_send_req     Net_CM3_L.lib(net_ping.o)
    0x080096c0   0x080096c0   0x0000008c   Code   RO         1641    i.proc_data         Net_CM3_L.lib(net_telnet_server.o)
    0x0800974c   0x0800974c   0x000000bc   Code   RO         1583    i.proc_opt_ia_na    Net_CM3_L.lib(net_dhcp6_client.o)
    0x08009808   0x08009808   0x0000001a   Code   RO         2251    i.rt_alloc_box      RTX_CM3.lib(rt_membox.o)
    0x08009822   0x08009822   0x0000003e   Code   RO         2279    i.rt_alloc_mem      RTX_CM3.lib(rt_memory.o)
    0x08009860   0x08009860   0x00000038   Code   RO         1799    i.rt_block          RTX_CM3.lib(rt_task.o)
    0x08009898   0x08009898   0x00000048   Code   RO         2550    i.rt_chk_robin      RTX_CM3.lib(rt_robin.o)
    0x080098e0   0x080098e0   0x00000070   Code   RO         2020    i.rt_dec_dly        RTX_CM3.lib(rt_list.o)
    0x08009950   0x08009950   0x00000044   Code   RO         1800    i.rt_dispatch       RTX_CM3.lib(rt_task.o)
    0x08009994   0x08009994   0x00000006   Code   RO         2186    i.rt_dly_wait       RTX_CM3.lib(rt_time.o)
    0x0800999a   0x0800999a   0x00000002   PAD
    0x0800999c   0x0800999c   0x0000001c   Code   RO         1975    i.rt_evt_clr        RTX_CM3.lib(rt_event.o)
    0x080099b8   0x080099b8   0x00000050   Code   RO         1977    i.rt_evt_psh        RTX_CM3.lib(rt_event.o)
    0x08009a08   0x08009a08   0x0000005c   Code   RO         1978    i.rt_evt_set        RTX_CM3.lib(rt_event.o)
    0x08009a64   0x08009a64   0x0000003c   Code   RO         1979    i.rt_evt_wait       RTX_CM3.lib(rt_event.o)
    0x08009aa0   0x08009aa0   0x0000002c   Code   RO         2252    i.rt_free_box       RTX_CM3.lib(rt_membox.o)
    0x08009acc   0x08009acc   0x00000028   Code   RO         2280    i.rt_free_mem       RTX_CM3.lib(rt_memory.o)
    0x08009af4   0x08009af4   0x00000028   Code   RO         2021    i.rt_get_first      RTX_CM3.lib(rt_list.o)
    0x08009b1c   0x08009b1c   0x00000024   Code   RO         2022    i.rt_get_same_rdy_prio  RTX_CM3.lib(rt_list.o)
    0x08009b40   0x08009b40   0x00000008   Code   RO          726    i.rt_id2obj         RTX_CM3.lib(rt_cmsis.o)
    0x08009b48   0x08009b48   0x00000048   Code   RO         1801    i.rt_init_context   RTX_CM3.lib(rt_task.o)
    0x08009b90   0x08009b90   0x0000001a   Code   RO         2281    i.rt_init_mem       RTX_CM3.lib(rt_memory.o)
    0x08009baa   0x08009baa   0x00000002   PAD
    0x08009bac   0x08009bac   0x00000018   Code   RO         2551    i.rt_init_robin     RTX_CM3.lib(rt_robin.o)
    0x08009bc4   0x08009bc4   0x00000080   Code   RO         2306    i.rt_init_stack     RTX_CM3.lib(hal_cm.o)
    0x08009c44   0x08009c44   0x00000008   Code   RO         2098    i.rt_mbx_check      RTX_CM3.lib(rt_mailbox.o)
    0x08009c4c   0x08009c4c   0x0000001a   Code   RO         2099    i.rt_mbx_init       RTX_CM3.lib(rt_mailbox.o)
    0x08009c66   0x08009c66   0x00000002   PAD
    0x08009c68   0x08009c68   0x000000f0   Code   RO         2100    i.rt_mbx_psh        RTX_CM3.lib(rt_mailbox.o)
    0x08009d58   0x08009d58   0x000000b4   Code   RO         2102    i.rt_mbx_wait       RTX_CM3.lib(rt_mailbox.o)
    0x08009e0c   0x08009e0c   0x00000044   Code   RO          727    i.rt_ms2tick        RTX_CM3.lib(rt_cmsis.o)
    0x08009e50   0x08009e50   0x00000010   Code   RO         2220    i.rt_mut_init       RTX_CM3.lib(rt_mutex.o)
    0x08009e60   0x08009e60   0x000000d8   Code   RO         2221    i.rt_mut_release    RTX_CM3.lib(rt_mutex.o)
    0x08009f38   0x08009f38   0x00000078   Code   RO         2222    i.rt_mut_wait       RTX_CM3.lib(rt_mutex.o)
    0x08009fb0   0x08009fb0   0x0000007c   Code   RO         1888    i.rt_pop_req        RTX_CM3.lib(rt_system.o)
    0x0800a02c   0x0800a02c   0x00000020   Code   RO         1889    i.rt_psh_req        RTX_CM3.lib(rt_system.o)
    0x0800a04c   0x0800a04c   0x0000005c   Code   RO         2023    i.rt_psq_enq        RTX_CM3.lib(rt_list.o)
    0x0800a0a8   0x0800a0a8   0x00000048   Code   RO         2024    i.rt_put_dly        RTX_CM3.lib(rt_list.o)
    0x0800a0f0   0x0800a0f0   0x00000036   Code   RO         2025    i.rt_put_prio       RTX_CM3.lib(rt_list.o)
    0x0800a126   0x0800a126   0x00000002   PAD
    0x0800a128   0x0800a128   0x00000014   Code   RO         2026    i.rt_put_rdy_first  RTX_CM3.lib(rt_list.o)
    0x0800a13c   0x0800a13c   0x00000034   Code   RO         2027    i.rt_resort_prio    RTX_CM3.lib(rt_list.o)
    0x0800a170   0x0800a170   0x00000006   Code   RO         2307    i.rt_ret_val        RTX_CM3.lib(hal_cm.o)
    0x0800a176   0x0800a176   0x00000008   Code   RO         2308    i.rt_ret_val2       RTX_CM3.lib(hal_cm.o)
    0x0800a17e   0x0800a17e   0x00000028   Code   RO         2028    i.rt_rmv_dly        RTX_CM3.lib(rt_list.o)
    0x0800a1a6   0x0800a1a6   0x00000002   PAD
    0x0800a1a8   0x0800a1a8   0x00000030   Code   RO         2029    i.rt_rmv_list       RTX_CM3.lib(rt_list.o)
    0x0800a1d8   0x0800a1d8   0x0000000c   Code   RO         2146    i.rt_sem_init       RTX_CM3.lib(rt_semaphore.o)
    0x0800a1e4   0x0800a1e4   0x00000034   Code   RO         2147    i.rt_sem_psh        RTX_CM3.lib(rt_semaphore.o)
    0x0800a218   0x0800a218   0x0000002a   Code   RO         2148    i.rt_sem_send       RTX_CM3.lib(rt_semaphore.o)
    0x0800a242   0x0800a242   0x00000002   PAD
    0x0800a244   0x0800a244   0x00000040   Code   RO         2149    i.rt_sem_wait       RTX_CM3.lib(rt_semaphore.o)
    0x0800a284   0x0800a284   0x00000024   Code   RO         1891    i.rt_stk_check      RTX_CM3.lib(rt_system.o)
    0x0800a2a8   0x0800a2a8   0x00000028   Code   RO         1802    i.rt_switch_req     RTX_CM3.lib(rt_task.o)
    0x0800a2d0   0x0800a2d0   0x000000cc   Code   RO         1803    i.rt_sys_init       RTX_CM3.lib(rt_task.o)
    0x0800a39c   0x0800a39c   0x00000078   Code   RO         1804    i.rt_sys_start      RTX_CM3.lib(rt_task.o)
    0x0800a414   0x0800a414   0x00000040   Code   RO         1893    i.rt_systick        RTX_CM3.lib(rt_system.o)
    0x0800a454   0x0800a454   0x00000012   Code   RO          728    i.rt_tid2ptcb       RTX_CM3.lib(rt_cmsis.o)
    0x0800a466   0x0800a466   0x00000002   PAD
    0x0800a468   0x0800a468   0x00000034   Code   RO          729    i.rt_timer_insert   RTX_CM3.lib(rt_cmsis.o)
    0x0800a49c   0x0800a49c   0x0000003c   Code   RO          730    i.rt_timer_remove   RTX_CM3.lib(rt_cmsis.o)
    0x0800a4d8   0x0800a4d8   0x00000088   Code   RO         1805    i.rt_tsk_create     RTX_CM3.lib(rt_task.o)
    0x0800a560   0x0800a560   0x0000017c   Code   RO         1806    i.rt_tsk_delete     RTX_CM3.lib(rt_task.o)
    0x0800a6dc   0x0800a6dc   0x00000030   Code   RO         1807    i.rt_tsk_pass       RTX_CM3.lib(rt_task.o)
    0x0800a70c   0x0800a70c   0x0000007c   Code   RO         1808    i.rt_tsk_prio       RTX_CM3.lib(rt_task.o)
    0x0800a788   0x0800a788   0x00000010   Code   RO         1809    i.rt_tsk_self       RTX_CM3.lib(rt_task.o)
    0x0800a798   0x0800a798   0x00000070   Code   RO         1584    i.select_server     Net_CM3_L.lib(net_dhcp6_client.o)
    0x0800a808   0x0800a808   0x00000012   Code   RO          731    i.svcDelay          RTX_CM3.lib(rt_cmsis.o)
    0x0800a81a   0x0800a81a   0x00000002   PAD
    0x0800a81c   0x0800a81c   0x00000070   Code   RO          732    i.svcKernelInitialize  RTX_CM3.lib(rt_cmsis.o)
    0x0800a88c   0x0800a88c   0x00000048   Code   RO          734    i.svcKernelStart    RTX_CM3.lib(rt_cmsis.o)
    0x0800a8d4   0x0800a8d4   0x00000024   Code   RO          737    i.svcMessageCreate  RTX_CM3.lib(rt_cmsis.o)
    0x0800a8f8   0x0800a8f8   0x0000003a   Code   RO          738    i.svcMessageGet     RTX_CM3.lib(rt_cmsis.o)
    0x0800a932   0x0800a932   0x0000001c   Code   RO          740    i.svcMutexCreate    RTX_CM3.lib(rt_cmsis.o)
    0x0800a94e   0x0800a94e   0x00000022   Code   RO          742    i.svcMutexRelease   RTX_CM3.lib(rt_cmsis.o)
    0x0800a970   0x0800a970   0x0000003a   Code   RO          743    i.svcMutexWait      RTX_CM3.lib(rt_cmsis.o)
    0x0800a9aa   0x0800a9aa   0x00000024   Code   RO          745    i.svcSemaphoreCreate  RTX_CM3.lib(rt_cmsis.o)
    0x0800a9ce   0x0800a9ce   0x00000028   Code   RO          747    i.svcSemaphoreRelease  RTX_CM3.lib(rt_cmsis.o)
    0x0800a9f6   0x0800a9f6   0x00000032   Code   RO          748    i.svcSemaphoreWait  RTX_CM3.lib(rt_cmsis.o)
    0x0800aa28   0x0800aa28   0x00000024   Code   RO          749    i.svcSignalClear    RTX_CM3.lib(rt_cmsis.o)
    0x0800aa4c   0x0800aa4c   0x00000024   Code   RO          750    i.svcSignalSet      RTX_CM3.lib(rt_cmsis.o)
    0x0800aa70   0x0800aa70   0x00000054   Code   RO          751    i.svcSignalWait     RTX_CM3.lib(rt_cmsis.o)
    0x0800aac4   0x0800aac4   0x0000006c   Code   RO          752    i.svcThreadCreate   RTX_CM3.lib(rt_cmsis.o)
    0x0800ab30   0x0800ab30   0x0000001c   Code   RO          753    i.svcThreadGetId    RTX_CM3.lib(rt_cmsis.o)
    0x0800ab4c   0x0800ab4c   0x00000038   Code   RO          756    i.svcThreadTerminate  RTX_CM3.lib(rt_cmsis.o)
    0x0800ab84   0x0800ab84   0x0000000a   Code   RO          757    i.svcThreadYield    RTX_CM3.lib(rt_cmsis.o)
    0x0800ab8e   0x0800ab8e   0x00000018   Code   RO          758    i.svcTimerCall      RTX_CM3.lib(rt_cmsis.o)
    0x0800aba6   0x0800aba6   0x00000002   PAD
    0x0800aba8   0x0800aba8   0x00000038   Code   RO          759    i.svcTimerCreate    RTX_CM3.lib(rt_cmsis.o)
    0x0800abe0   0x0800abe0   0x00000064   Code   RO          761    i.svcTimerStart     RTX_CM3.lib(rt_cmsis.o)
    0x0800ac44   0x0800ac44   0x0000005c   Code   RO          767    i.sysTimerTick      RTX_CM3.lib(rt_cmsis.o)
    0x0800aca0   0x0800aca0   0x0000004c   Code   RO         1713    i.sys_proc_tick     Net_CM3_L.lib(net_sys.o)
    0x0800acec   0x0800acec   0x000000e0   Code   RO         1498    i.tcp_map_socket    Net_CM3_L.lib(net_tcp.o)
    0x0800adcc   0x0800adcc   0x0000005e   Code   RO         1499    i.tcp_parse_opt     Net_CM3_L.lib(net_tcp.o)
    0x0800ae2a   0x0800ae2a   0x00000002   PAD
    0x0800ae2c   0x0800ae2c   0x000000d4   Code   RO         1500    i.tcp_proc_acknr    Net_CM3_L.lib(net_tcp.o)
    0x0800af00   0x0800af00   0x00000060   Code   RO         1501    i.tcp_proc_dupack   Net_CM3_L.lib(net_tcp.o)
    0x0800af60   0x0800af60   0x0000001a   Code   RO         1502    i.tcp_que_free      Net_CM3_L.lib(net_tcp.o)
    0x0800af7a   0x0800af7a   0x0000001a   Code   RO         1503    i.tcp_que_init      Net_CM3_L.lib(net_tcp.o)
    0x0800af94   0x0800af94   0x00000098   Code   RO         1504    i.tcp_que_resend    Net_CM3_L.lib(net_tcp.o)
    0x0800b02c   0x0800b02c   0x0000007a   Code   RO         1505    i.tcp_send_ctrl     Net_CM3_L.lib(net_tcp.o)
    0x0800b0a6   0x0800b0a6   0x00000060   Code   RO         1506    i.tcp_send_data     Net_CM3_L.lib(net_tcp.o)
    0x0800b106   0x0800b106   0x00000076   Code   RO         1507    i.tcp_send_reset    Net_CM3_L.lib(net_tcp.o)
    0x0800b17c   0x0800b17c   0x0000002c   Code   RO         1508    i.tcp_set_cwnd      Net_CM3_L.lib(net_tcp.o)
    0x0800b1a8   0x0800b1a8   0x00000074   Code   RO         1509    i.tcp_transit       Net_CM3_L.lib(net_tcp.o)
    0x0800b21c   0x0800b21c   0x000000ec   Code   RO         1510    i.tcp_write         Net_CM3_L.lib(net_tcp.o)
    0x0800b308   0x0800b308   0x00000034   Code   RO         1642    i.telnet_kill_session  Net_CM3_L.lib(net_telnet_server.o)
    0x0800b33c   0x0800b33c   0x00000148   Code   RO         1643    i.telnet_listener   Net_CM3_L.lib(net_telnet_server.o)
    0x0800b484   0x0800b484   0x00000094   Code   RO         1644    i.telnet_parse_cmd  Net_CM3_L.lib(net_telnet_server.o)
    0x0800b518   0x0800b518   0x000005c4   Code   RO         1645    i.telnet_server_run  Net_CM3_L.lib(net_telnet_server.o)
    0x0800badc   0x0800badc   0x00000040   Code   RO         1646    i.telnet_server_start  Net_CM3_L.lib(net_telnet_server.o)
    0x0800bb1c   0x0800bb1c   0x0000002c   Code   RO         1429    i.udp_port_in_use   Net_CM3_L.lib(net_udp.o)
    0x0800bb48   0x0800bb48   0x00000034   Data   RO            4    .constdata          telnet_server.o
    0x0800bb7c   0x0800bb7c   0x000003d4   Data   RO           71    .constdata          telnet_server_uif.o
    0x0800bf50   0x0800bf50   0x00000040   Data   RO          104    .constdata          rtc.o
    0x0800bf90   0x0800bf90   0x00000048   Data   RO          127    .constdata          backlight.o
    0x0800bfd8   0x0800bfd8   0x00000014   Data   RO          204    .constdata          sntp.o
    0x0800bfec   0x0800bfec   0x00001500   Data   RO          261    .constdata          glcd_fonts.o
    0x0800d4ec   0x0800d4ec   0x00000010   Data   RO          263    .constdata          glcd_fonts.o
    0x0800d4fc   0x0800d4fc   0x00000040   Data   RO          312    .constdata          led_mcbstm32c.o
    0x0800d53c   0x0800d53c   0x00000002   Data   RO          346    .constdata          rtx_conf_cm.o
    0x0800d53e   0x0800d53e   0x00000002   PAD
    0x0800d540   0x0800d540   0x00000004   Data   RO          347    .constdata          rtx_conf_cm.o
    0x0800d544   0x0800d544   0x00000004   Data   RO          348    .constdata          rtx_conf_cm.o
    0x0800d548   0x0800d548   0x00000004   Data   RO          352    .constdata          rtx_conf_cm.o
    0x0800d54c   0x0800d54c   0x00000001   Data   RO          353    .constdata          rtx_conf_cm.o
    0x0800d54d   0x0800d54d   0x00000003   PAD
    0x0800d550   0x0800d550   0x00000020   Data   RO          354    .constdata          rtx_conf_cm.o
    0x0800d570   0x0800d570   0x00000002   Data   RO          355    .constdata          rtx_conf_cm.o
    0x0800d572   0x0800d572   0x00000002   PAD
    0x0800d574   0x0800d574   0x00000004   Data   RO          356    .constdata          rtx_conf_cm.o
    0x0800d578   0x0800d578   0x00000004   Data   RO          357    .constdata          rtx_conf_cm.o
    0x0800d57c   0x0800d57c   0x00000001   Data   RO          358    .constdata          rtx_conf_cm.o
    0x0800d57d   0x0800d57d   0x00000003   PAD
    0x0800d580   0x0800d580   0x00000010   Data   RO          359    .constdata          rtx_conf_cm.o
    0x0800d590   0x0800d590   0x00000008   Data   RO          360    .constdata          rtx_conf_cm.o
    0x0800d598   0x0800d598   0x00000002   Data   RO          361    .constdata          rtx_conf_cm.o
    0x0800d59a   0x0800d59a   0x00000004   Data   RO          392    .constdata          phy_dp83848c.o
    0x0800d59e   0x0800d59e   0x00000002   PAD
    0x0800d5a0   0x0800d5a0   0x00000020   Data   RO          393    .constdata          phy_dp83848c.o
    0x0800d5c0   0x0800d5c0   0x00000050   Data   RO          420    .constdata          emac_stm32f10x.o
    0x0800d610   0x0800d610   0x00000044   Data   RO          421    .constdata          emac_stm32f10x.o
    0x0800d654   0x0800d654   0x00000038   Data   RO          470    .constdata          spi_stm32f10x.o
    0x0800d68c   0x0800d68c   0x00000008   Data   RO          471    .constdata          spi_stm32f10x.o
    0x0800d694   0x0800d694   0x00000008   Data   RO          472    .constdata          spi_stm32f10x.o
    0x0800d69c   0x0800d69c   0x00000008   Data   RO          473    .constdata          spi_stm32f10x.o
    0x0800d6a4   0x0800d6a4   0x00000008   Data   RO          474    .constdata          spi_stm32f10x.o
    0x0800d6ac   0x0800d6ac   0x0000002c   Data   RO          475    .constdata          spi_stm32f10x.o
    0x0800d6d8   0x0800d6d8   0x00000034   Data   RO          612    .constdata          net_config.o
    0x0800d70c   0x0800d70c   0x00000014   Data   RO          613    .constdata          net_config.o
    0x0800d720   0x0800d720   0x00000034   Data   RO          614    .constdata          net_config.o
    0x0800d754   0x0800d754   0x00000028   Data   RO          615    .constdata          net_config.o
    0x0800d77c   0x0800d77c   0x00000018   Data   RO          616    .constdata          net_config.o
    0x0800d794   0x0800d794   0x0000000c   Data   RO          617    .constdata          net_config.o
    0x0800d7a0   0x0800d7a0   0x0000000c   Data   RO          618    .constdata          net_config.o
    0x0800d7ac   0x0800d7ac   0x00000008   Data   RO          619    .constdata          net_config.o
    0x0800d7b4   0x0800d7b4   0x00000014   Data   RO          620    .constdata          net_config.o
    0x0800d7c8   0x0800d7c8   0x0000001c   Data   RO          621    .constdata          net_config.o
    0x0800d7e4   0x0800d7e4   0x00000050   Data   RO          622    .constdata          net_config.o
    0x0800d834   0x0800d834   0x00000006   Data   RO         1318    .constdata          Net_CM3_L.lib(net_eth.o)
    0x0800d83a   0x0800d83a   0x00000002   PAD
    0x0800d83c   0x0800d83c   0x0000002c   Data   RO         1511    .constdata          Net_CM3_L.lib(net_tcp.o)
    0x0800d868   0x0800d868   0x00000010   Data   RO         1586    .constdata          Net_CM3_L.lib(net_dhcp6_client.o)
    0x0800d878   0x0800d878   0x00000008   Data   RO         1608    .constdata          Net_CM3_L.lib(net_nbns_client.o)
    0x0800d880   0x0800d880   0x00000012   Data   RO         1688    .constdata          Net_CM3_L.lib(net_ping.o)
    0x0800d892   0x0800d892   0x00000010   Data   RO         1765    .constdata          Net_CM3_L.lib(net_addr.o)
    0x0800d8a2   0x0800d8a2   0x00000008   Data   RO         2419    .constdata          Net_CM3_L.lib(net_ip4.o)
    0x0800d8aa   0x0800d8aa   0x00000020   Data   RO         2461    .constdata          Net_CM3_L.lib(net_ip6.o)
    0x0800d8ca   0x0800d8ca   0x00000010   Data   RO         2462    .constdata          Net_CM3_L.lib(net_ip6.o)
    0x0800d8da   0x0800d8da   0x00000040   Data   RO         2921    .constdata          mc_w.l(ctype_c.o)
    0x0800d91a   0x0800d91a   0x00000002   PAD
    0x0800d91c   0x0800d91c   0x00000298   Data   RO          105    .conststring        rtc.o
    0x0800dbb4   0x0800dbb4   0x0000000a   Data   RO          623    .conststring        net_config.o
    0x0800dbbe   0x0800dbbe   0x00000002   PAD
    0x0800dbc0   0x0800dbc0   0x00000040   Data   RO          624    .conststring        net_config.o
    0x0800dc00   0x0800dc00   0x0000003d   Data   RO          625    .conststring        net_config.o
    0x0800dc3d   0x0800dc3d   0x00000003   PAD
    0x0800dc40   0x0800dc40   0x00000012   Data   RO          626    .conststring        net_config.o
    0x0800dc52   0x0800dc52   0x00000002   PAD
    0x0800dc54   0x0800dc54   0x00000009   Data   RO          627    .conststring        net_config.o
    0x0800dc5d   0x0800dc5d   0x00000003   PAD
    0x0800dc60   0x0800dc60   0x0000006d   Data   RO         1512    .conststring        Net_CM3_L.lib(net_tcp.o)
    0x0800dccd   0x0800dccd   0x00000003   PAD
    0x0800dcd0   0x0800dcd0   0x00000020   Data   RO         2923    Region$$Table       anon$$obj.o


    Execution Region RW_IRAM1 (Exec base: 0x20000000, Load base: 0x0800dcf0, Size: 0x00007960, Max: 0x00010000, ABSOLUTE)

    Exec Addr    Load Addr    Size         Type   Attr      Idx    E Section Name        Object

    0x20000000   0x0800dcf0   0x0000003e   Data   RW            5    .data               telnet_server.o
    0x2000003e   0x0800dd2e   0x00000002   PAD
    0x20000040   0x0800dd30   0x00000008   Data   RW           72    .data               telnet_server_uif.o
    0x20000048   0x0800dd38   0x00000008   Data   RW          205    .data               sntp.o
    0x20000050   0x0800dd40   0x00000004   Data   RW          231    .data               adc_mcbstm32c.o
    0x20000054   0x0800dd44   0x0000000c   Data   RW          276    .data               glcd_mcbstm32c.o
    0x20000060   0x0800dd50   0x00000004   Data   RW          363    .data               rtx_conf_cm.o
    0x20000064   0x0800dd54   0x00000004   Data   RW          364    .data               rtx_conf_cm.o
    0x20000068   0x0800dd58   0x00000004   Data   RW          365    .data               rtx_conf_cm.o
    0x2000006c   0x0800dd5c   0x00000004   Data   RW          422    .data               emac_stm32f10x.o
    0x20000070   0x0800dd60   0x00000002   Data   RW          508    .data               dma_stm32f10x.o
    0x20000072   0x0800dd62   0x00000002   PAD
    0x20000074   0x0800dd64   0x00000014   Data   RW          572    .data               system_stm32f10x.o
    0x20000088   0x0800dd78   0x00000008   Data   RW          628    .data               net_config.o
    0x20000090   0x0800dd80   0x00000006   Data   RW          629    .data               net_config.o
    0x20000096   0x0800dd86   0x00000002   PAD
    0x20000098   0x0800dd88   0x00000008   Data   RW          770    .data               RTX_CM3.lib(rt_cmsis.o)
    0x200000a0   0x0800dd90   0x00000001   Data   RW         1368    .data               Net_CM3_L.lib(net_arp.o)
    0x200000a1   0x0800dd91   0x00000003   PAD
    0x200000a4   0x0800dd94   0x00000008   Data   RW         1399    .data               Net_CM3_L.lib(net_loop.o)
    0x200000ac   0x0800dd9c   0x00000002   Data   RW         1431    .data               Net_CM3_L.lib(net_udp.o)
    0x200000ae   0x0800dd9e   0x00000004   Data   RW         1513    .data               Net_CM3_L.lib(net_tcp.o)
    0x200000b2   0x0800dda2   0x00000001   Data   RW         1609    .data               Net_CM3_L.lib(net_nbns_client.o)
    0x200000b3   0x0800dda3   0x00000001   PAD
    0x200000b4   0x0800dda4   0x00000006   Data   RW         1647    .data               Net_CM3_L.lib(net_telnet_server.o)
    0x200000ba   0x0800ddaa   0x00000002   PAD
    0x200000bc   0x0800ddac   0x00000008   Data   RW         1715    .data               Net_CM3_L.lib(net_sys.o)
    0x200000c4   0x0800ddb4   0x00000008   Data   RW         1811    .data               RTX_CM3.lib(rt_task.o)
    0x200000cc   0x0800ddbc   0x00000008   Data   RW         1896    .data               RTX_CM3.lib(rt_system.o)
    0x200000d4   0x0800ddc4   0x00000004   Data   RW         2190    .data               RTX_CM3.lib(rt_time.o)
    0x200000d8   0x0800ddc8   0x00000001   Data   RW         2309    .data               RTX_CM3.lib(hal_cm.o)
    0x200000d9   0x0800ddc9   0x00000001   Data   RW         2375    .data               Net_CM3_L.lib(net_ndp.o)
    0x200000da   0x0800ddca   0x00000002   PAD
    0x200000dc   0x0800ddcc   0x00000008   Data   RW         2420    .data               Net_CM3_L.lib(net_ip4.o)
    0x200000e4   0x0800ddd4   0x00000008   Data   RW         2463    .data               Net_CM3_L.lib(net_ip6.o)
    0x200000ec   0x0800dddc   0x00000008   Data   RW         2552    .data               RTX_CM3.lib(rt_robin.o)
    0x200000f4   0x0800dde4   0x00000004   Data   RW         2884    .data               mc_w.l(stdout.o)
    0x200000f8        -       0x00000010   Zero   RW            2    .bss                telnet_server.o
    0x20000108        -       0x000000a0   Zero   RW            3    .bss                telnet_server.o
    0x200001a8        -       0x00000048   Zero   RW           70    .bss                telnet_server_uif.o
    0x200001f0        -       0x00000048   Zero   RW          203    .bss                sntp.o
    0x20000238        -       0x00000020   Zero   RW          340    .bss                rtx_conf_cm.o
    0x20000258        -       0x00000178   Zero   RW          341    .bss                rtx_conf_cm.o
    0x200003d0        -       0x00000810   Zero   RW          342    .bss                rtx_conf_cm.o
    0x20000be0        -       0x00000a18   Zero   RW          343    .bss                rtx_conf_cm.o
    0x200015f8        -       0x00000084   Zero   RW          344    .bss                rtx_conf_cm.o
    0x2000167c        -       0x0000001c   Zero   RW          345    .bss                rtx_conf_cm.o
    0x20001698        -       0x0000000c   Zero   RW          391    .bss                phy_dp83848c.o
    0x200016a4        -       0x000024cc   Zero   RW          419    .bss                emac_stm32f10x.o
    0x20003b70        -       0x0000000c   Zero   RW          468    .bss                spi_stm32f10x.o
    0x20003b7c        -       0x0000001c   Zero   RW          469    .bss                spi_stm32f10x.o
    0x20003b98        -       0x00000010   Zero   RW          599    .bss                net_config.o
    0x20003ba8        -       0x00000010   Zero   RW          600    .bss                net_config.o
    0x20003bb8        -       0x00000018   Zero   RW          601    .bss                net_config.o
    0x20003bd0        -       0x00002ee0   Zero   RW          602    .bss                net_config.o
    0x20006ab0        -       0x0000008c   Zero   RW          603    .bss                net_config.o
    0x20006b3c        -       0x00000018   Zero   RW          604    .bss                net_config.o
    0x20006b54        -       0x0000008c   Zero   RW          605    .bss                net_config.o
    0x20006be0        -       0x00000064   Zero   RW          606    .bss                net_config.o
    0x20006c44        -       0x0000003c   Zero   RW          607    .bss                net_config.o
    0x20006c80        -       0x00000210   Zero   RW          608    .bss                net_config.o
    0x20006e90        -       0x00000450   Zero   RW          609    .bss                net_config.o
    0x200072e0        -       0x00000010   Zero   RW          610    .bss                net_config.o
    0x200072f0        -       0x00000010   Zero   RW          611    .bss                net_config.o
    0x20007300        -       0x00000094   Zero   RW         1317    .bss                Net_CM3_L.lib(net_eth.o)
    0x20007394        -       0x00000010   Zero   RW         1367    .bss                Net_CM3_L.lib(net_arp.o)
    0x200073a4        -       0x00000014   Zero   RW         1430    .bss                Net_CM3_L.lib(net_udp.o)
    0x200073b8        -       0x00000044   Zero   RW         1585    .bss                Net_CM3_L.lib(net_dhcp6_client.o)
    0x200073fc        -       0x00000020   Zero   RW         1687    .bss                Net_CM3_L.lib(net_ping.o)
    0x2000741c        -       0x00000034   Zero   RW         1714    .bss                Net_CM3_L.lib(net_sys.o)
    0x20007450        -       0x0000005c   Zero   RW         1764    .bss                Net_CM3_L.lib(net_addr.o)
    0x200074ac        -       0x00000034   Zero   RW         1810    .bss                RTX_CM3.lib(rt_task.o)
    0x200074e0        -       0x00000030   Zero   RW         2030    .bss                RTX_CM3.lib(rt_list.o)
    0x20007510        -       0x0000003c   Zero   RW         2374    .bss                Net_CM3_L.lib(net_ndp.o)
    0x2000754c        -       0x00000014   Zero   RW         2499    .bss                Net_CM3_L.lib(net_mem.o)
    0x20007560        -       0x00000400   Zero   RW          561    STACK               startup_stm32f10x_cl.o


==============================================================================

Image component sizes


      Code (inc. data)   RO Data    RW Data    ZI Data      Debug   Object Name

       248         18          0          4          0     246965   adc_mcbstm32c.o
       156         18         72          0          0     223641   backlight.o
       968         44          0          2          0      30577   dma_stm32f10x.o
      1852         86        148          4       9420      39734   emac_stm32f10x.o
         0          0       5392          0          0        748   glcd_fonts.o
      2876         40          0         12          0      17944   glcd_mcbstm32c.o
       508         36          0          0          0       2671   gpio_stm32f10x.o
       192          6         64          0          0       5875   led_mcbstm32c.o
       184          4        510         14      14184      24872   net_config.o
       460          8         36          0         12       8738   phy_dp83848c.o
      1064         38        728          0          0       5072   rtc.o
        28          6         84         12       5216       7450   rtx_conf_cm.o
       128         18         20          8         72       2187   sntp.o
      2214         46        132          0         40      12903   spi_stm32f10x.o
        36          8        336          0       1024        872   startup_stm32f10x_cl.o
       452         46          0         20          0       2303   system_stm32f10x.o
       764        164         52         62        176      20783   telnet_server.o
      2308        956        980          8         72       4534   telnet_server_uif.o
       108         18          0          0          0      25644   timer.o

    ----------------------------------------------------------------------
     14548       1560       8608        152      30216     683513   Object Totals
         0          0         32          0          0          0   (incl. Generated)
         2          0         22          6          0          0   (incl. Padding)

    ----------------------------------------------------------------------

      Code (inc. data)   RO Data    RW Data    ZI Data      Debug   Library Member Name

      1292         82         16          0         92       1344   net_addr.o
      1924        142          0          1         16       1120   net_arp.o
       110          6          0          0          0        284   net_common.o
      2390        130         16          0         68        824   net_dhcp6_client.o
      2316        174          6          0        148       1472   net_eth.o
       372         26          0          0          0        164   net_icmp.o
       476         32          0          0          0        252   net_icmp6.o
      1108         90          8          8          0        900   net_ip4.o
       686         78         48          8          0        648   net_ip6.o
       260         26          0          8          0        244   net_loop.o
       452         46          0          0         20        556   net_mem.o
       396         24          8          1          0        176   net_nbns_client.o
      2442        174          0          1         60       1504   net_ndp.o
       108         20         18          0         32        212   net_ping.o
       500         66          0          8         52        712   net_sys.o
      4762        166        153          4          0       2592   net_tcp.o
      2756        120          0          6          0       1392   net_telnet_server.o
       978         42          0          2         20        876   net_udp.o
       238         24          0          1          0       3312   hal_cm.o
       304         36          0          0          0        768   hal_cm3.o
      2228        240          0          8          0      51107   rt_cmsis.o
       300         24          0          0          0       3183   rt_event.o
       566         44          0          0         48       8792   rt_list.o
       554         10          0          0          0       3949   rt_mailbox.o
       140          0          0          0          0       1925   rt_membox.o
       128          0          0          0          0       2307   rt_memory.o
       352         14          0          0          0       2105   rt_mutex.o
        96         22          0          8          0       1158   rt_robin.o
       186         10          0          0          0       2902   rt_semaphore.o
       298         52          0          8          0       6223   rt_system.o
      1264        184          0          8         52      10147   rt_task.o
         6          0          0          4          0        652   rt_time.o
         4          4          0          0          0        208   svc_table.o
        56          8          0          0          0         84   __0sscanf.o
        28          0          0          0          0         68   _chval.o
       812          4          0          0          0        112   _scanf.o
       332          0          0          0          0         96   _scanf_int.o
        64          0          0          0          0         84   _sgetc.o
        40          6         64          0          0         68   ctype_c.o
         0          0          0          0          0          0   entry.o
         0          0          0          0          0          0   entry10a.o
         0          0          0          0          0          0   entry11a.o
         8          4          0          0          0          0   entry2.o
         4          0          0          0          0          0   entry5.o
         0          0          0          0          0          0   entry7b.o
         0          0          0          0          0          0   entry8b.o
        18          0          0          0          0         80   fputc.o
        30          0          0          0          0          0   handlers.o
        36          8          0          0          0         68   init.o
        10          0          0          0          0         68   isspace_c.o
         0          0          0          0          0          0   iusesemip.o
        30          0          0          0          0         68   llshl.o
        32          0          0          0          0         68   llushr.o
        26          0          0          0          0         80   memcmp.o
        64          0          0          0          0         76   memmovea.o
        36          0          0          0          0        108   memseta.o
      1204         60          0          0          0        504   printf8.o
        40          8          0          0          0         84   scanf_char.o
         0          0          0          0          0          0   semi.o
         0          0          0          4          0          0   stdout.o
        28          0          0          0          0         76   strcmp.o
        14          0          0          0          0         68   strlen.o
        98          0          0          0          0         92   uldiv.o

    ----------------------------------------------------------------------
     33060       2206        344         96        608     115962   Library Totals
        58          0          7          8          0          0   (incl. Padding)

    ----------------------------------------------------------------------

      Code (inc. data)   RO Data    RW Data    ZI Data      Debug   Library Name

     23328       1444        273         47        508      15272   Net_CM3_L.lib
      6664        664          0         37        100      98738   RTX_CM3.lib
      3010         98         64          4          0       1952   mc_w.l

    ----------------------------------------------------------------------
     33060       2206        344         96        608     115962   Library Totals

    ----------------------------------------------------------------------

==============================================================================


      Code (inc. data)   RO Data    RW Data    ZI Data      Debug   

     47608       3766       8952        248      30824     780907   Grand Totals
     47608       3766       8952        248      30824     780907   ELF Image Totals
     47608       3766       8952        248          0          0   ROM Totals

==============================================================================

    Total RO  Size (Code + RO Data)                56560 (  55.23kB)
    Total RW  Size (RW Data + ZI Data)             31072 (  30.34kB)
    Total ROM Size (Code + RO Data + RW Data)      56808 (  55.48kB)

==============================================================================

